Archive member included because of file (symbol)

./build/core.a(exception_vectors.o)
                              (call_user_start)
./build/core.a(app_main.o)    ./build/core.a(exception_vectors.o) (sdk_user_fatal_exception_handler)
../../libc/xtensa-lx106-elf/lib/libc.a(lib_a-malloc.o)
                              ./build/core.a(app_main.o) (malloc)
../../libc/xtensa-lx106-elf/lib/libc.a(lib_a-memcpy.o)
                              ./build/core.a(app_main.o) (memcpy)
../../libc/xtensa-lx106-elf/lib/libc.a(lib_a-memset.o)
                              ./build/core.a(app_main.o) (memset)
../../libc/xtensa-lx106-elf/lib/libc.a(lib_a-nano-freer.o)
                              ../../libc/xtensa-lx106-elf/lib/libc.a(lib_a-malloc.o) (_free_r)
../../libc/xtensa-lx106-elf/lib/libc.a(lib_a-nano-mallocr.o)
                              ../../libc/xtensa-lx106-elf/lib/libc.a(lib_a-nano-freer.o) (__malloc_free_list)
../../libc/xtensa-lx106-elf/lib/libc.a(lib_a-printf.o)
                              ./build/core.a(app_main.o) (printf)
../../libc/xtensa-lx106-elf/lib/libc.a(lib_a-putchar.o)
                              ./build/core.a(app_main.o) (putchar)
../../libc/xtensa-lx106-elf/lib/libc.a(lib_a-putc.o)
                              ../../libc/xtensa-lx106-elf/lib/libc.a(lib_a-putchar.o) (_putc_r)
../../libc/xtensa-lx106-elf/lib/libc.a(lib_a-puts.o)
                              ./build/core.a(app_main.o) (puts)
../../libc/xtensa-lx106-elf/lib/libc.a(lib_a-strlen.o)
                              ../../libc/xtensa-lx106-elf/lib/libc.a(lib_a-puts.o) (strlen)
../../libc/xtensa-lx106-elf/lib/libc.a(lib_a-wbuf.o)
                              ../../libc/xtensa-lx106-elf/lib/libc.a(lib_a-putc.o) (__swbuf_r)
../../libc/xtensa-lx106-elf/lib/libc.a(lib_a-wsetup.o)
                              ../../libc/xtensa-lx106-elf/lib/libc.a(lib_a-wbuf.o) (__swsetup_r)
../../libc/xtensa-lx106-elf/lib/libc.a(lock.o)
                              ../../libc/xtensa-lx106-elf/lib/libc.a(lib_a-putc.o) (_lock_acquire_recursive)
../../libc/xtensa-lx106-elf/lib/libc.a(lib_a-fflush.o)
                              ../../libc/xtensa-lx106-elf/lib/libc.a(lib_a-wbuf.o) (_fflush_r)
../../libc/xtensa-lx106-elf/lib/libc.a(lib_a-findfp.o)
                              ../../libc/xtensa-lx106-elf/lib/libc.a(lib_a-putc.o) (__sinit)
../../libc/xtensa-lx106-elf/lib/libc.a(lib_a-fvwrite.o)
                              ../../libc/xtensa-lx106-elf/lib/libc.a(lib_a-puts.o) (__sfvwrite_r)
../../libc/xtensa-lx106-elf/lib/libc.a(lib_a-fwalk.o)
                              ../../libc/xtensa-lx106-elf/lib/libc.a(lib_a-findfp.o) (_fwalk)
../../libc/xtensa-lx106-elf/lib/libc.a(lib_a-impure.o)
                              ../../libc/xtensa-lx106-elf/lib/libc.a(lib_a-fflush.o) (_global_impure_ptr)
../../libc/xtensa-lx106-elf/lib/libc.a(lib_a-makebuf.o)
                              ../../libc/xtensa-lx106-elf/lib/libc.a(lib_a-wsetup.o) (__smakebuf_r)
../../libc/xtensa-lx106-elf/lib/libc.a(lib_a-memchr.o)
                              ../../libc/xtensa-lx106-elf/lib/libc.a(lib_a-fvwrite.o) (memchr)
../../libc/xtensa-lx106-elf/lib/libc.a(lib_a-memmove.o)
                              ../../libc/xtensa-lx106-elf/lib/libc.a(lib_a-fvwrite.o) (memmove)
../../libc/xtensa-lx106-elf/lib/libc.a(lib_a-nano-reallocr.o)
                              ../../libc/xtensa-lx106-elf/lib/libc.a(lib_a-fvwrite.o) (_realloc_r)
../../libc/xtensa-lx106-elf/lib/libc.a(lib_a-nano-vfprintf.o)
                              ../../libc/xtensa-lx106-elf/lib/libc.a(lib_a-printf.o) (_vfprintf_r)
../../libc/xtensa-lx106-elf/lib/libc.a(lib_a-stdio.o)
                              ../../libc/xtensa-lx106-elf/lib/libc.a(lib_a-findfp.o) (__sread)
../../libc/xtensa-lx106-elf/lib/libc.a(isatty.o)
                              ../../libc/xtensa-lx106-elf/lib/libc.a(lib_a-makebuf.o) (_isatty_r)
../../libc/xtensa-lx106-elf/lib/libc.a(lib_a-fclose.o)
                              ../../libc/xtensa-lx106-elf/lib/libc.a(lib_a-findfp.o) (_fclose_r)
../../libc/xtensa-lx106-elf/lib/libc.a(lib_a-fputwc.o)
                              ../../libc/xtensa-lx106-elf/lib/libc.a(lib_a-nano-vfprintf.o) (_fputwc_r)
../../libc/xtensa-lx106-elf/lib/libc.a(lib_a-locale.o)
                              ../../libc/xtensa-lx106-elf/lib/libc.a(lib_a-fputwc.o) (__locale_mb_cur_max)
../../libc/xtensa-lx106-elf/lib/libc.a(lib_a-nano-msizer.o)
                              ../../libc/xtensa-lx106-elf/lib/libc.a(lib_a-nano-reallocr.o) (_malloc_usable_size_r)
../../libc/xtensa-lx106-elf/lib/libc.a(lib_a-nano-vfprintf_i.o)
                              ../../libc/xtensa-lx106-elf/lib/libc.a(lib_a-nano-vfprintf.o) (_printf_i)
../../libc/xtensa-lx106-elf/lib/libc.a(lib_a-strcmp.o)
                              ../../libc/xtensa-lx106-elf/lib/libc.a(lib_a-locale.o) (strcmp)
../../libc/xtensa-lx106-elf/lib/libc.a(lib_a-wcrtomb.o)
                              ../../libc/xtensa-lx106-elf/lib/libc.a(lib_a-fputwc.o) (_wcrtomb_r)
../../libc/xtensa-lx106-elf/lib/libc.a(lib_a-wctomb_r.o)
                              ../../libc/xtensa-lx106-elf/lib/libc.a(lib_a-wcrtomb.o) (__wctomb)
./build/sdklib/libmain.a(ets_timer.o)
                              ./build/core.a(app_main.o) (sdk_ets_timer_init)
./build/sdklib/libmain.a(misc.o)
                              ./build/core.a(app_main.o) (sdk_os_install_putc1)
./build/sdklib/libmain.a(spi_flash.o)
                              ./build/core.a(app_main.o) (sdk_flashchip)
./build/sdklib/libmain.a(uart.o)
                              ./build/core.a(app_main.o) (sdk_uart_div_modify)
./build/sdklib/libmain.a(user_interface.o)
                              ./build/core.a(app_main.o) (sdk_rst_if)
./build/sdklib/libmain.a(os_cpu_a.o)
                              ./build/core.a(exception_vectors.o) (sdk__xt_int_enter)
./build/sdklib/libmain.a(xtensa_context.o)
                              ./build/sdklib/libmain.a(os_cpu_a.o) (sdk__xt_context_save)
./build/sdklib/libmain.a(timers.o)
                              ./build/sdklib/libmain.a(user_interface.o) (sdk_os_timer_setfn)
./build/sdklib/libnet80211.a(ieee80211.o)
                              ./build/core.a(app_main.o) (sdk_g_ic)
./build/sdklib/libnet80211.a(ieee80211_crypto.o)
                              ./build/sdklib/libnet80211.a(ieee80211.o) (sdk_ieee80211_crypto_attach)
./build/sdklib/libnet80211.a(ieee80211_hostap.o)
                              ./build/core.a(app_main.o) (sdk_wifi_softap_start)
./build/sdklib/libnet80211.a(ieee80211_ht.o)
                              ./build/sdklib/libmain.a(user_interface.o) (sdk_ieee80211_ht_attach)
./build/sdklib/libnet80211.a(ieee80211_input.o)
                              ./build/sdklib/libnet80211.a(ieee80211_hostap.o) (sdk_ieee80211_decap)
./build/sdklib/libnet80211.a(ieee80211_output.o)
                              ./build/sdklib/libnet80211.a(ieee80211_ht.o) (sdk_ieee80211_mgmt_output)
./build/sdklib/libnet80211.a(ieee80211_phy.o)
                              ./build/sdklib/libnet80211.a(ieee80211.o) (sdk_ieee80211_get_ratetable)
./build/sdklib/libnet80211.a(ieee80211_power.o)
                              ./build/sdklib/libnet80211.a(ieee80211_hostap.o) (sdk_ieee80211_psq_init)
./build/sdklib/libnet80211.a(ieee80211_proto.o)
                              ./build/sdklib/libnet80211.a(ieee80211_hostap.o) (sdk_ieee80211_addr_bcast)
./build/sdklib/libnet80211.a(ieee80211_scan.o)
                              ./build/sdklib/libmain.a(user_interface.o) (sdk_scannum)
./build/sdklib/libnet80211.a(ieee80211_sta.o)
                              ./build/sdklib/libmain.a(user_interface.o) (sdk_ieee80211_sta_new_state)
./build/sdklib/libnet80211.a(wl_chm.o)
                              ./build/sdklib/libnet80211.a(ieee80211.o) (sdk_chm_init)
./build/sdklib/libnet80211.a(wl_cnx.o)
                              ./build/sdklib/libmain.a(user_interface.o) (sdk_sta_con_timer)
./build/sdklib/libnet80211.a(ieee80211_action.o)
                              ./build/sdklib/libnet80211.a(ieee80211_ht.o) (sdk_ieee80211_send_action_register)
./build/sdklib/libnet80211.a(ieee80211_ets.o)
                              ./build/sdklib/libnet80211.a(ieee80211_ht.o) (sdk_ieee80211_getmgtframe)
./build/sdklib/libphy.a(phy.o)
                              ./build/sdklib/libnet80211.a(wl_chm.o) (sdk_phy_change_channel)
./build/sdklib/libphy.a(phy_chip_v6_ana.o)
                              ./build/sdklib/libmain.a(user_interface.o) (sdk_test_tout)
./build/sdklib/libphy.a(phy_chip_v6.o)
                              ./build/sdklib/libphy.a(phy_chip_v6_ana.o) (sdk_chip6_sleep_params)
./build/sdklib/libphy.a(phy_chip_v6_cal.o)
                              ./build/sdklib/libphy.a(phy_chip_v6.o) (sdk_loop_pwctrl_pwdet_error_accum_high_power)
./build/sdklib/libphy.a(phy_chip_v6_unused.o)
                              ./build/sdklib/libphy.a(phy_chip_v6.o) (sdk_chip_v6_set_sense)
./build/sdklib/libphy.a(phy_sleep.o)
                              ./build/sdklib/libphy.a(phy_chip_v6.o) (sdk_pm_set_sleep_cycles)
./build/sdklib/libphy.a(phy_chip_v5_romfunc.o)
                              ./build/sdklib/libphy.a(phy_chip_v6_ana.o) (sdk_g_phyFuns)
./build/sdklib/libphy.a(phy_chip_v5_ana_romfunc.o)
                              ./build/sdklib/libphy.a(phy_chip_v5_romfunc.o) (sdk_rom_ana_inf_gating_en)
./build/sdklib/libphy.a(phy_chip_v5_cal_romfunc.o)
                              ./build/sdklib/libphy.a(phy_chip_v5_romfunc.o) (sdk_rom_cal_tos_v50)
./build/sdklib/libpp.a(esf_buf.o)
                              ./build/sdklib/libnet80211.a(ieee80211_output.o) (sdk_esf_buf_alloc)
./build/sdklib/libpp.a(if_hwctrl.o)
                              ./build/sdklib/libnet80211.a(ieee80211_hostap.o) (sdk_ic_set_vif)
./build/sdklib/libpp.a(lmac.o)
                              ./build/core.a(app_main.o) (sdk_lmacInit)
./build/sdklib/libpp.a(pm.o)  ./build/sdklib/libmain.a(user_interface.o) (sdk_pm_rtc_clock_cali_proc)
./build/sdklib/libpp.a(pp.o)  ./build/sdklib/libpp.a(pm.o) (sdk_pend_flag_noise_check)
./build/sdklib/libpp.a(rate_control.o)
                              ./build/sdklib/libpp.a(lmac.o) (sdk_RC_SetBasicRate)
./build/sdklib/libpp.a(trc.o)
                              ./build/sdklib/libpp.a(if_hwctrl.o) (sdk_rcUpdatePhyMode)
./build/sdklib/libpp.a(wdev.o)
                              ./build/sdklib/libpp.a(esf_buf.o) (sdk_wDevCtrl)
./build/sdklib/libwpa.a(ap_config.o)
                              ./build/sdklib/libnet80211.a(ieee80211_hostap.o) (sdk_hostapd_setup_wpa_psk)
./build/sdklib/libwpa.a(common.o)
                              ./build/sdklib/libmain.a(user_interface.o) (sdk_hexstr2bin)
./build/sdklib/libwpa.a(os_xtensa.o)
                              ./build/sdklib/libwpa.a(common.o) (sdk_os_get_time)
./build/sdklib/libwpa.a(sha1-pbkdf2.o)
                              ./build/sdklib/libmain.a(user_interface.o) (sdk_pbkdf2_sha1)
./build/sdklib/libwpa.a(wpa_auth.o)
                              ./build/sdklib/libnet80211.a(ieee80211_hostap.o) (sdk_wpa_init)
./build/sdklib/libwpa.a(wpa_auth_ie.o)
                              ./build/sdklib/libwpa.a(wpa_auth.o) (sdk_wpa_auth_gen_wpa_ie)
./build/sdklib/libwpa.a(wpa.o)
                              ./build/sdklib/libnet80211.a(ieee80211_sta.o) (sdk_wpa_sm_rx_eapol)
./build/sdklib/libwpa.a(wpa_common.o)
                              ./build/sdklib/libwpa.a(wpa_auth_ie.o) (sdk_wpa_parse_wpa_ie_rsn)
./build/sdklib/libwpa.a(wpa_debug.o)
                              ./build/sdklib/libwpa.a(wpa_auth.o) (sdk_eloop_cancel_timeout)
./build/sdklib/libwpa.a(wpa_ie.o)
                              ./build/sdklib/libnet80211.a(ieee80211_scan.o) (sdk_wpa_parse_wpa_ie)
./build/sdklib/libwpa.a(wpa_main.o)
                              ./build/sdklib/libnet80211.a(wl_cnx.o) (sdk_ppInstallKey)
./build/sdklib/libwpa.a(wpas_glue.o)
                              ./build/sdklib/libwpa.a(wpa.o) (sdk_wpa_sm_alloc_eapol)
./build/sdklib/libwpa.a(aes-unwrap.o)
                              ./build/sdklib/libwpa.a(wpa.o) (sdk_aes_unwrap)
./build/sdklib/libwpa.a(aes-wrap.o)
                              ./build/sdklib/libwpa.a(wpa_auth.o) (sdk_aes_wrap)
./build/sdklib/libwpa.a(md5.o)
                              ./build/sdklib/libwpa.a(wpa_common.o) (sdk_hmac_md5)
./build/sdklib/libwpa.a(md5-internal.o)
                              ./build/sdklib/libwpa.a(md5.o) (sdk_md5_vector)
./build/sdklib/libwpa.a(rc4.o)
                              ./build/sdklib/libwpa.a(wpa_auth.o) (sdk_rc4_skip)
./build/sdklib/libwpa.a(sha1.o)
                              ./build/sdklib/libwpa.a(sha1-pbkdf2.o) (sdk_hmac_sha1_vector)
./build/sdklib/libwpa.a(sha1-internal.o)
                              ./build/sdklib/libwpa.a(sha1.o) (sdk_sha1_vector)
./build/sdklib/libwpa.a(aes-internal-dec.o)
                              ./build/sdklib/libwpa.a(aes-unwrap.o) (sdk_aes_decrypt_init)
./build/sdklib/libwpa.a(aes-internal-enc.o)
                              ./build/sdklib/libwpa.a(aes-wrap.o) (sdk_aes_encrypt_init)
./build/sdklib/libwpa.a(aes-internal.o)
                              ./build/sdklib/libwpa.a(aes-internal-dec.o) (sdk_Te0)
./build/program.a(simple.o)   ./build/core.a(app_main.o) (user_init)
./build/freertos.a(queue.o)   ./build/sdklib/libmain.a(ets_timer.o) (xQueueGenericCreate)
./build/freertos.a(list.o)    ./build/freertos.a(queue.o) (vListInitialise)
./build/freertos.a(tasks.o)   ./build/sdklib/libmain.a(os_cpu_a.o) (pxCurrentTCB)
./build/freertos.a(timers.o)  ./build/freertos.a(tasks.o) (xTimerCreateTimerTask)
./build/freertos.a(port.o)    ./build/freertos.a(tasks.o) (pxPortInitialiseStack)
./build/lwip.a(esp_interface.o)
                              ./build/sdklib/libnet80211.a(ieee80211_hostap.o) (ethernetif_init)
./build/lwip.a(tcpip.o)       ./build/sdklib/libnet80211.a(ieee80211_hostap.o) (tcpip_input)
./build/lwip.a(dhcp.o)        ./build/sdklib/libnet80211.a(wl_cnx.o) (dhcp_release)
./build/lwip.a(init.o)        ./build/lwip.a(tcpip.o) (lwip_init)
./build/lwip.a(memp.o)        ./build/lwip.a(tcpip.o) (memp_sizes)
./build/lwip.a(dns.o)         ./build/lwip.a(init.o) (dns_init)
./build/lwip.a(tcp.o)         ./build/lwip.a(init.o) (tcp_init)
./build/lwip.a(pbuf.o)        ./build/sdklib/libnet80211.a(ieee80211_power.o) (pbuf_free)
./build/lwip.a(netif.o)       ./build/lwip.a(init.o) (netif_init)
./build/lwip.a(stats.o)       ./build/lwip.a(init.o) (stats_init)
./build/lwip.a(timers.o)      ./build/lwip.a(tcpip.o) (sys_timeout)
./build/lwip.a(udp.o)         ./build/lwip.a(init.o) (udp_init)
./build/lwip.a(tcp_out.o)     ./build/lwip.a(tcp.o) (tcp_enqueue_flags)
./build/lwip.a(ip_addr.o)     ./build/lwip.a(udp.o) (ip4_addr_isbroadcast)
./build/lwip.a(ip.o)          ./build/lwip.a(tcp.o) (ip_route)
./build/lwip.a(inet_chksum.o)
                              ./build/lwip.a(udp.o) (inet_chksum_pseudo)
./build/lwip.a(icmp.o)        ./build/lwip.a(ip.o) (icmp_input)
./build/lwip.a(etharp.o)      ./build/lwip.a(timers.o) (etharp_tmr)
./build/lwip.a(sys_arch.o)    ./build/lwip.a(tcpip.o) (sys_mbox_new)
./build/lwip.a(sockets.o)     ./build/lwip.a(init.o) (lwip_socket_init)
./build/lwip.a(tcp_in.o)      ./build/lwip.a(tcp_out.o) (tcp_input_pcb)
./build/lwip.a(raw.o)         ./build/lwip.a(ip.o) (raw_input)
./build/lwip.a(ip_frag.o)     ./build/lwip.a(ip.o) (ip_frag)
./build/lwip.a(api_lib.o)     ./build/lwip.a(sockets.o) (netconn_new_with_proto_and_callback)
./build/lwip.a(netbuf.o)      ./build/lwip.a(sockets.o) (netbuf_delete)
./build/lwip.a(api_msg.o)     ./build/lwip.a(api_lib.o) (do_newconn)
./build/core.a(sdk_compat.o)  ./build/sdklib/libmain.a(user_interface.o) (zalloc)
./build/core.a(newlib_syscalls.o)
                              ../../libc/xtensa-lx106-elf/lib/libc.a(lib_a-nano-mallocr.o) (_sbrk_r)
/home/olga/esp/esp-open-sdk/xtensa-lx106-elf/xtensa-lx106-elf/sysroot/usr/lib/libhal.a(clock.o)
                              ./build/sdklib/libmain.a(misc.o) (xthal_get_ccount)
/home/olga/esp/esp-open-sdk/xtensa-lx106-elf/xtensa-lx106-elf/sysroot/usr/lib/libhal.a(int_asm--set_intset.o)
                              ./build/freertos.a(port.o) (xthal_set_intset)
/home/olga/esp/esp-open-sdk/xtensa-lx106-elf/lib/gcc/xtensa-lx106-elf/4.8.2/libgcc.a(_divsi3.o)
                              ../../libc/xtensa-lx106-elf/lib/libc.a(lib_a-fvwrite.o) (__divsi3)
/home/olga/esp/esp-open-sdk/xtensa-lx106-elf/lib/gcc/xtensa-lx106-elf/4.8.2/libgcc.a(_modsi3.o)
                              ./build/sdklib/libnet80211.a(ieee80211_ht.o) (__modsi3)
/home/olga/esp/esp-open-sdk/xtensa-lx106-elf/lib/gcc/xtensa-lx106-elf/4.8.2/libgcc.a(_udivsi3.o)
                              ../../libc/xtensa-lx106-elf/lib/libc.a(lib_a-nano-vfprintf_i.o) (__udivsi3)
/home/olga/esp/esp-open-sdk/xtensa-lx106-elf/lib/gcc/xtensa-lx106-elf/4.8.2/libgcc.a(_umodsi3.o)
                              ../../libc/xtensa-lx106-elf/lib/libc.a(lib_a-nano-vfprintf_i.o) (__umodsi3)
/home/olga/esp/esp-open-sdk/xtensa-lx106-elf/lib/gcc/xtensa-lx106-elf/4.8.2/libgcc.a(_ashrdi3.o)
                              ./build/sdklib/libphy.a(phy_chip_v6.o) (__ashrdi3)
/home/olga/esp/esp-open-sdk/xtensa-lx106-elf/lib/gcc/xtensa-lx106-elf/4.8.2/libgcc.a(_addsubsf3.o)
                              ./build/sdklib/libphy.a(phy_chip_v6_ana.o) (__addsf3)
/home/olga/esp/esp-open-sdk/xtensa-lx106-elf/lib/gcc/xtensa-lx106-elf/4.8.2/libgcc.a(_mulsf3.o)
                              ./build/sdklib/libphy.a(phy_chip_v6_ana.o) (__mulsf3)
/home/olga/esp/esp-open-sdk/xtensa-lx106-elf/lib/gcc/xtensa-lx106-elf/4.8.2/libgcc.a(_divsf3.o)
                              ./build/sdklib/libphy.a(phy_chip_v6_ana.o) (__divsf3)
/home/olga/esp/esp-open-sdk/xtensa-lx106-elf/lib/gcc/xtensa-lx106-elf/4.8.2/libgcc.a(_fixsfsi.o)
                              ./build/sdklib/libphy.a(phy_chip_v6.o) (__fixsfsi)
/home/olga/esp/esp-open-sdk/xtensa-lx106-elf/lib/gcc/xtensa-lx106-elf/4.8.2/libgcc.a(_fixunssfsi.o)
                              ./build/sdklib/libphy.a(phy_chip_v6_ana.o) (__fixunssfsi)
/home/olga/esp/esp-open-sdk/xtensa-lx106-elf/lib/gcc/xtensa-lx106-elf/4.8.2/libgcc.a(_floatsisf.o)
                              ./build/sdklib/libphy.a(phy_chip_v6.o) (__floatunsisf)
/home/olga/esp/esp-open-sdk/xtensa-lx106-elf/lib/gcc/xtensa-lx106-elf/4.8.2/libgcc.a(_addsubdf3.o)
                              ./build/sdklib/libphy.a(phy_chip_v5_ana_romfunc.o) (__adddf3)
/home/olga/esp/esp-open-sdk/xtensa-lx106-elf/lib/gcc/xtensa-lx106-elf/4.8.2/libgcc.a(_muldf3.o)
                              ./build/sdklib/libphy.a(phy_chip_v6.o) (__muldf3)
/home/olga/esp/esp-open-sdk/xtensa-lx106-elf/lib/gcc/xtensa-lx106-elf/4.8.2/libgcc.a(_divdf3.o)
                              ./build/sdklib/libphy.a(phy_chip_v6_ana.o) (__divdf3)
/home/olga/esp/esp-open-sdk/xtensa-lx106-elf/lib/gcc/xtensa-lx106-elf/4.8.2/libgcc.a(_fixdfsi.o)
                              ./build/sdklib/libphy.a(phy_chip_v6.o) (__fixdfsi)
/home/olga/esp/esp-open-sdk/xtensa-lx106-elf/lib/gcc/xtensa-lx106-elf/4.8.2/libgcc.a(_floatsidf.o)
                              ./build/sdklib/libphy.a(phy_chip_v6_ana.o) (__floatunsidf)
/home/olga/esp/esp-open-sdk/xtensa-lx106-elf/lib/gcc/xtensa-lx106-elf/4.8.2/libgcc.a(_truncdfsf2.o)
                              ./build/sdklib/libphy.a(phy_chip_v6_ana.o) (__truncdfsf2)
/home/olga/esp/esp-open-sdk/xtensa-lx106-elf/lib/gcc/xtensa-lx106-elf/4.8.2/libgcc.a(_extendsfdf2.o)
                              ./build/sdklib/libphy.a(phy_chip_v5_ana_romfunc.o) (__extendsfdf2)
/home/olga/esp/esp-open-sdk/xtensa-lx106-elf/lib/gcc/xtensa-lx106-elf/4.8.2/libgcc.a(_muldi3.o)
                              ./build/sdklib/libphy.a(phy_chip_v6.o) (__muldi3)
/home/olga/esp/esp-open-sdk/xtensa-lx106-elf/lib/gcc/xtensa-lx106-elf/4.8.2/libgcc.a(_popcountsi2.o)
                              ./build/sdklib/libpp.a(if_hwctrl.o) (__popcountsi2)
/home/olga/esp/esp-open-sdk/xtensa-lx106-elf/lib/gcc/xtensa-lx106-elf/4.8.2/libgcc.a(_divdi3.o)
                              ./build/sdklib/libphy.a(phy_chip_v6_cal.o) (__divdi3)
/home/olga/esp/esp-open-sdk/xtensa-lx106-elf/lib/gcc/xtensa-lx106-elf/4.8.2/libgcc.a(_umoddi3.o)
                              ./build/sdklib/libpp.a(pm.o) (__umoddi3)
/home/olga/esp/esp-open-sdk/xtensa-lx106-elf/lib/gcc/xtensa-lx106-elf/4.8.2/libgcc.a(_umulsidi3.o)
                              /home/olga/esp/esp-open-sdk/xtensa-lx106-elf/lib/gcc/xtensa-lx106-elf/4.8.2/libgcc.a(_muldi3.o) (__umulsidi3)
/home/olga/esp/esp-open-sdk/xtensa-lx106-elf/lib/gcc/xtensa-lx106-elf/4.8.2/libgcc.a(_popcount_tab.o)
                              /home/olga/esp/esp-open-sdk/xtensa-lx106-elf/lib/gcc/xtensa-lx106-elf/4.8.2/libgcc.a(_popcountsi2.o) (__popcount_tab)
../../libc/xtensa-lx106-elf/lib/libc.a(lib_a-bzero.o)
                              ./build/sdklib/libmain.a(user_interface.o) (bzero)
../../libc/xtensa-lx106-elf/lib/libc.a(lib_a-calloc.o)
                              ./build/core.a(sdk_compat.o) (calloc)
../../libc/xtensa-lx106-elf/lib/libc.a(lib_a-memcmp.o)
                              ./build/sdklib/libmain.a(user_interface.o) (memcmp)
../../libc/xtensa-lx106-elf/lib/libc.a(lib_a-mstats.o)
                              ./build/freertos.a(port.o) (mallinfo)
../../libc/xtensa-lx106-elf/lib/libc.a(lib_a-nano-callocr.o)
                              ../../libc/xtensa-lx106-elf/lib/libc.a(lib_a-calloc.o) (_calloc_r)
../../libc/xtensa-lx106-elf/lib/libc.a(lib_a-nano-mallinfor.o)
                              ../../libc/xtensa-lx106-elf/lib/libc.a(lib_a-mstats.o) (_mallinfo_r)
../../libc/xtensa-lx106-elf/lib/libc.a(lib_a-nano-malloptr.o)
                              ../../libc/xtensa-lx106-elf/lib/libc.a(lib_a-mstats.o) (_mallopt_r)
../../libc/xtensa-lx106-elf/lib/libc.a(lib_a-nano-mallstatsr.o)
                              ../../libc/xtensa-lx106-elf/lib/libc.a(lib_a-mstats.o) (_malloc_stats_r)
../../libc/xtensa-lx106-elf/lib/libc.a(lib_a-rand.o)
                              ./build/sdklib/libpp.a(lmac.o) (rand)
../../libc/xtensa-lx106-elf/lib/libc.a(lib_a-sprintf.o)
                              ./build/sdklib/libmain.a(user_interface.o) (sprintf)
../../libc/xtensa-lx106-elf/lib/libc.a(lib_a-strncmp.o)
                              ./build/sdklib/libmain.a(user_interface.o) (strncmp)
../../libc/xtensa-lx106-elf/lib/libc.a(lib_a-strncpy.o)
                              ./build/sdklib/libnet80211.a(ieee80211_scan.o) (strncpy)
../../libc/xtensa-lx106-elf/lib/libc.a(lib_a-strrchr.o)
                              ./build/sdklib/libwpa.a(common.o) (strrchr)
../../libc/xtensa-lx106-elf/lib/libc.a(lib_a-syssbrk.o)
                              ./build/freertos.a(port.o) (sbrk)
../../libc/xtensa-lx106-elf/lib/libc.a(lib_a-fprintf.o)
                              ../../libc/xtensa-lx106-elf/lib/libc.a(lib_a-mstats.o) (fiprintf)
../../libc/xtensa-lx106-elf/lib/libc.a(lib_a-nano-svfprintf.o)
                              ../../libc/xtensa-lx106-elf/lib/libc.a(lib_a-sprintf.o) (_svfprintf_r)
../../libc/xtensa-lx106-elf/lib/libc.a(lib_a-strchr.o)
                              ../../libc/xtensa-lx106-elf/lib/libc.a(lib_a-strrchr.o) (strchr)
./build/sdklib/libnet80211.a(ieee80211_crypto_ccmp.o)
                              ./build/sdklib/libwpa.a(wpa_auth.o) (sdk_ccmp)
./build/sdklib/libnet80211.a(ieee80211_crypto_tkip.o)
                              ./build/sdklib/libwpa.a(wpa_auth.o) (sdk_tkip)
./build/sdklib/libnet80211.a(ieee80211_crypto_wep.o)
                              ./build/sdklib/libwpa.a(wpa_auth.o) (sdk_wep)

Allocating common symbols
Common symbol       size              file

current_iphdr_src   0x4               ./build/lwip.a(ip.o)
netif_list          0x4               ./build/lwip.a(netif.o)
sdk_info            0x24              ./build/core.a(app_main.o)
tcp_active_pcbs_changed
                    0x1               ./build/lwip.a(tcp.o)
tcp_active_pcbs     0x4               ./build/lwip.a(tcp.o)
udp_pcbs            0x4               ./build/lwip.a(udp.o)
current_netif       0x4               ./build/lwip.a(ip.o)
level1_int_disabled
                    0x1               ./build/freertos.a(port.o)
tcp_ticks           0x4               ./build/lwip.a(tcp.o)
tcp_listen_pcbs     0x4               ./build/lwip.a(tcp.o)
isr                 0x40              ./build/freertos.a(port.o)
current_iphdr_dest  0x4               ./build/lwip.a(ip.o)
cpu_sr              0x4               ./build/freertos.a(port.o)
sdk_xWatchDogTaskHandle
                    0x4               ./build/core.a(app_main.o)
tcp_tmp_pcb         0x4               ./build/lwip.a(tcp.o)
sdk_xUserTaskHandle
                    0x4               ./build/core.a(app_main.o)
tcp_input_pcb       0x4               ./build/lwip.a(tcp_in.o)
current_header      0x4               ./build/lwip.a(ip.o)
dhcp_rx_options_given
                    0xa               ./build/lwip.a(dhcp.o)
tcp_bound_pcbs      0x4               ./build/lwip.a(tcp.o)
sdk_user_init_flag  0x1               ./build/core.a(app_main.o)
tcp_tw_pcbs         0x4               ./build/lwip.a(tcp.o)
lwip_stats          0xba              ./build/lwip.a(stats.o)
netif_default       0x4               ./build/lwip.a(netif.o)
dhcp_rx_options_val
                    0x28              ./build/lwip.a(dhcp.o)

Memory Configuration

Name             Origin             Length             Attributes
dport0_0_seg     0x000000003ff00000 0x0000000000000010
dram0_0_seg      0x000000003ffe8000 0x0000000000014000
iram1_0_seg      0x0000000040100000 0x0000000000008000
irom0_0_seg      0x0000000040240000 0x00000000001fc000
*default*        0x0000000000000000 0xffffffffffffffff

Linker script and memory map

START GROUP
LOAD ./build/program.a
LOAD ./build/freertos.a
LOAD ./build/lwip.a
LOAD ./build/axtls.a
LOAD ./build/core.a
LOAD /home/olga/esp/esp-open-sdk/xtensa-lx106-elf/xtensa-lx106-elf/sysroot/usr/lib/libhal.a
LOAD /home/olga/esp/esp-open-sdk/xtensa-lx106-elf/lib/gcc/xtensa-lx106-elf/4.8.2/libgcc.a
LOAD ../../libc/xtensa-lx106-elf/lib/libc.a
LOAD ./build/sdklib/libmain.a
LOAD ./build/sdklib/libnet80211.a
LOAD ./build/sdklib/libphy.a
LOAD ./build/sdklib/libpp.a
LOAD ./build/sdklib/libwpa.a
END GROUP
                0x0000000040106410                pvPortMalloc = malloc
                0x000000004010642c                vPortFree = free
                0x0000000040101198                _lock_acquire = vPortEnterCritical
                0x0000000040101198                _lock_acquire_recursive = vPortEnterCritical
                0x0000000040101198                _lock_try_acquire = vPortEnterCritical
                0x0000000040101198                _lock_try_acquire_recursive = vPortEnterCritical
                0x00000000401011c0                _lock_release = vPortExitCritical
                0x00000000401011c0                _lock_release_recursive = vPortExitCritical
                0x0000000040106820                ets_printf = printf
                0x0000000040000000                PROVIDE (_memmap_vecbase_reset, 0x40000000)
                0x0000000000000110                _memmap_cacheattr_wb_base = 0x110
                0x0000000000000110                _memmap_cacheattr_wt_base = 0x110
                0x0000000000000220                _memmap_cacheattr_bp_base = 0x220
                0x00000000fffff00f                _memmap_cacheattr_unused_mask = 0xfffff00f
                0x000000002222211f                _memmap_cacheattr_wb_trapnull = 0x2222211f
                0x000000002222211f                _memmap_cacheattr_wba_trapnull = 0x2222211f
                0x000000002222211f                _memmap_cacheattr_wbna_trapnull = 0x2222211f
                0x000000002222211f                _memmap_cacheattr_wt_trapnull = 0x2222211f
                0x000000002222222f                _memmap_cacheattr_bp_trapnull = 0x2222222f
                0x00000000fffff11f                _memmap_cacheattr_wb_strict = 0xfffff11f
                0x00000000fffff11f                _memmap_cacheattr_wt_strict = 0xfffff11f
                0x00000000fffff22f                _memmap_cacheattr_bp_strict = 0xfffff22f
                0x0000000022222112                _memmap_cacheattr_wb_allvalid = 0x22222112
                0x0000000022222112                _memmap_cacheattr_wt_allvalid = 0x22222112
                0x0000000022222222                _memmap_cacheattr_bp_allvalid = 0x22222222
                0x000000002222211f                PROVIDE (_memmap_cacheattr_reset, _memmap_cacheattr_wb_trapnull)

.dport0.rodata  0x000000003ff00000        0x0
                0x000000003ff00000                _dport0_rodata_start = ABSOLUTE (.)
 *(.dport0.rodata)
 *(.dport.rodata)
                0x000000003ff00000                _dport0_rodata_end = ABSOLUTE (.)

.dport0.literal
                0x000000003ff00000        0x0
                0x000000003ff00000                _dport0_literal_start = ABSOLUTE (.)
 *(.dport0.literal)
 *(.dport.literal)
                0x000000003ff00000                _dport0_literal_end = ABSOLUTE (.)

.dport0.data    0x000000003ff00000        0x0
                0x000000003ff00000                _dport0_data_start = ABSOLUTE (.)
 *(.dport0.data)
 *(.dport.data)
                0x000000003ff00000                _dport0_data_end = ABSOLUTE (.)

.data           0x000000003ffe8000      0xba8
                0x000000003ffe8000                _data_start = ABSOLUTE (.)
 *(.data)
 .data          0x000000003ffe8000        0x0 ./build/core.a(exception_vectors.o)
 .data          0x000000003ffe8000        0x0 ./build/core.a(app_main.o)
 .data          0x000000003ffe8000        0x0 ../../libc/xtensa-lx106-elf/lib/libc.a(lib_a-malloc.o)
 .data          0x000000003ffe8000        0x0 ../../libc/xtensa-lx106-elf/lib/libc.a(lib_a-memcpy.o)
 .data          0x000000003ffe8000        0x0 ../../libc/xtensa-lx106-elf/lib/libc.a(lib_a-memset.o)
 .data          0x000000003ffe8000        0x0 ../../libc/xtensa-lx106-elf/lib/libc.a(lib_a-nano-freer.o)
 .data          0x000000003ffe8000        0x0 ../../libc/xtensa-lx106-elf/lib/libc.a(lib_a-nano-mallocr.o)
 .data          0x000000003ffe8000        0x0 ../../libc/xtensa-lx106-elf/lib/libc.a(lib_a-printf.o)
 .data          0x000000003ffe8000        0x0 ../../libc/xtensa-lx106-elf/lib/libc.a(lib_a-putchar.o)
 .data          0x000000003ffe8000        0x0 ../../libc/xtensa-lx106-elf/lib/libc.a(lib_a-putc.o)
 .data          0x000000003ffe8000        0x0 ../../libc/xtensa-lx106-elf/lib/libc.a(lib_a-puts.o)
 .data          0x000000003ffe8000        0x0 ../../libc/xtensa-lx106-elf/lib/libc.a(lib_a-strlen.o)
 .data          0x000000003ffe8000        0x0 ../../libc/xtensa-lx106-elf/lib/libc.a(lib_a-wbuf.o)
 .data          0x000000003ffe8000        0x0 ../../libc/xtensa-lx106-elf/lib/libc.a(lib_a-wsetup.o)
 .data          0x000000003ffe8000        0x0 ../../libc/xtensa-lx106-elf/lib/libc.a(lock.o)
 .data          0x000000003ffe8000        0x0 ../../libc/xtensa-lx106-elf/lib/libc.a(lib_a-fflush.o)
 .data          0x000000003ffe8000        0x0 ../../libc/xtensa-lx106-elf/lib/libc.a(lib_a-findfp.o)
 .data          0x000000003ffe8000        0x0 ../../libc/xtensa-lx106-elf/lib/libc.a(lib_a-fvwrite.o)
 .data          0x000000003ffe8000        0x0 ../../libc/xtensa-lx106-elf/lib/libc.a(lib_a-fwalk.o)
 .data          0x000000003ffe8000      0x430 ../../libc/xtensa-lx106-elf/lib/libc.a(lib_a-impure.o)
                0x000000003ffe8000                _impure_ptr
 .data          0x000000003ffe8430        0x0 ../../libc/xtensa-lx106-elf/lib/libc.a(lib_a-makebuf.o)
 .data          0x000000003ffe8430        0x0 ../../libc/xtensa-lx106-elf/lib/libc.a(lib_a-memchr.o)
 .data          0x000000003ffe8430        0x0 ../../libc/xtensa-lx106-elf/lib/libc.a(lib_a-memmove.o)
 .data          0x000000003ffe8430        0x0 ../../libc/xtensa-lx106-elf/lib/libc.a(lib_a-nano-reallocr.o)
 .data          0x000000003ffe8430        0x0 ../../libc/xtensa-lx106-elf/lib/libc.a(lib_a-nano-vfprintf.o)
 .data          0x000000003ffe8430        0x0 ../../libc/xtensa-lx106-elf/lib/libc.a(lib_a-stdio.o)
 .data          0x000000003ffe8430        0x0 ../../libc/xtensa-lx106-elf/lib/libc.a(isatty.o)
 .data          0x000000003ffe8430        0x0 ../../libc/xtensa-lx106-elf/lib/libc.a(lib_a-fclose.o)
 .data          0x000000003ffe8430        0x0 ../../libc/xtensa-lx106-elf/lib/libc.a(lib_a-fputwc.o)
 .data          0x000000003ffe8430       0x7c ../../libc/xtensa-lx106-elf/lib/libc.a(lib_a-locale.o)
                0x000000003ffe84a8                __mb_cur_max
 .data          0x000000003ffe84ac        0x0 ../../libc/xtensa-lx106-elf/lib/libc.a(lib_a-nano-msizer.o)
 .data          0x000000003ffe84ac        0x0 ../../libc/xtensa-lx106-elf/lib/libc.a(lib_a-nano-vfprintf_i.o)
 .data          0x000000003ffe84ac        0x0 ../../libc/xtensa-lx106-elf/lib/libc.a(lib_a-strcmp.o)
 .data          0x000000003ffe84ac        0x0 ../../libc/xtensa-lx106-elf/lib/libc.a(lib_a-wcrtomb.o)
 .data          0x000000003ffe84ac        0x4 ../../libc/xtensa-lx106-elf/lib/libc.a(lib_a-wctomb_r.o)
                0x000000003ffe84ac                __wctomb
 .data          0x000000003ffe84b0        0x0 ./build/sdklib/libmain.a(ets_timer.o)
 .data          0x000000003ffe84b0        0x4 ./build/sdklib/libmain.a(misc.o)
 .data          0x000000003ffe84b4       0x18 ./build/sdklib/libmain.a(spi_flash.o)
                0x000000003ffe84b4                sdk_flashchip
 .data          0x000000003ffe84cc        0x0 ./build/sdklib/libmain.a(uart.o)
 .data          0x000000003ffe84cc        0x1 ./build/sdklib/libmain.a(user_interface.o)
                0x000000003ffe84cc                sdk_dhcpc_flag
 .data          0x000000003ffe84cd        0x0 ./build/sdklib/libmain.a(os_cpu_a.o)
 .data          0x000000003ffe84cd        0x0 ./build/sdklib/libmain.a(xtensa_context.o)
 .data          0x000000003ffe84cd        0x0 ./build/sdklib/libmain.a(timers.o)
 .data          0x000000003ffe84cd        0x0 ./build/sdklib/libnet80211.a(ieee80211.o)
 .data          0x000000003ffe84cd        0x0 ./build/sdklib/libnet80211.a(ieee80211_crypto.o)
 .data          0x000000003ffe84cd        0x0 ./build/sdklib/libnet80211.a(ieee80211_hostap.o)
 .data          0x000000003ffe84cd        0x0 ./build/sdklib/libnet80211.a(ieee80211_ht.o)
 .data          0x000000003ffe84cd        0x0 ./build/sdklib/libnet80211.a(ieee80211_input.o)
 .data          0x000000003ffe84cd        0x0 ./build/sdklib/libnet80211.a(ieee80211_output.o)
 *fill*         0x000000003ffe84cd        0x3 
 .data          0x000000003ffe84d0      0x1a8 ./build/sdklib/libnet80211.a(ieee80211_phy.o)
 .data          0x000000003ffe8678        0x0 ./build/sdklib/libnet80211.a(ieee80211_power.o)
 .data          0x000000003ffe8678        0x6 ./build/sdklib/libnet80211.a(ieee80211_proto.o)
                0x000000003ffe8678                sdk_ieee80211_addr_bcast
 .data          0x000000003ffe867e        0x0 ./build/sdklib/libnet80211.a(ieee80211_scan.o)
 .data          0x000000003ffe867e        0x0 ./build/sdklib/libnet80211.a(ieee80211_sta.o)
 .data          0x000000003ffe867e        0x0 ./build/sdklib/libnet80211.a(wl_chm.o)
 .data          0x000000003ffe867e        0x0 ./build/sdklib/libnet80211.a(wl_cnx.o)
 *fill*         0x000000003ffe867e        0x2 
 .data          0x000000003ffe8680       0x1c ./build/sdklib/libnet80211.a(ieee80211_action.o)
 .data          0x000000003ffe869c        0x0 ./build/sdklib/libnet80211.a(ieee80211_ets.o)
 .data          0x000000003ffe869c        0x0 ./build/sdklib/libphy.a(phy.o)
 .data          0x000000003ffe869c        0x0 ./build/sdklib/libphy.a(phy_chip_v6_ana.o)
 *fill*         0x000000003ffe869c        0x4 
 .data          0x000000003ffe86a0       0x53 ./build/sdklib/libphy.a(phy_chip_v6.o)
                0x000000003ffe86a2                sdk_tx_rf_ana_gain
                0x000000003ffe86c4                sdk_tx_pwctrl_atten_init_en
                0x000000003ffe86d0                sdk_rx_gain_swp
                0x000000003ffe86f0                sdk_test_rffreq_txcap
 *fill*         0x000000003ffe86f3        0xd 
 .data          0x000000003ffe8700       0x90 ./build/sdklib/libphy.a(phy_chip_v6_cal.o)
                0x000000003ffe8700                sdk_dpd_index
                0x000000003ffe8760                sdk_dpd_db2linear
 .data          0x000000003ffe8790        0x0 ./build/sdklib/libphy.a(phy_chip_v6_unused.o)
 .data          0x000000003ffe8790        0x4 ./build/sdklib/libphy.a(phy_sleep.o)
                0x000000003ffe8790                sdk_chip_version
 .data          0x000000003ffe8794      0x11c ./build/sdklib/libphy.a(phy_chip_v5_romfunc.o)
                0x000000003ffe8794                sdk_g_phyFuns
                0x000000003ffe8798                sdk_g_phyFuns_instance
 .data          0x000000003ffe88b0        0x0 ./build/sdklib/libphy.a(phy_chip_v5_ana_romfunc.o)
 .data          0x000000003ffe88b0        0x7 ./build/sdklib/libphy.a(phy_chip_v5_cal_romfunc.o)
 .data          0x000000003ffe88b7        0x0 ./build/sdklib/libpp.a(esf_buf.o)
 .data          0x000000003ffe88b7        0x0 ./build/sdklib/libpp.a(if_hwctrl.o)
 .data          0x000000003ffe88b7        0x0 ./build/sdklib/libpp.a(lmac.o)
 *fill*         0x000000003ffe88b7        0x1 
 .data          0x000000003ffe88b8        0x1 ./build/sdklib/libpp.a(pm.o)
 *fill*         0x000000003ffe88b9        0x3 
 .data          0x000000003ffe88bc       0x10 ./build/sdklib/libpp.a(pp.o)
                0x000000003ffe88bc                sdk_NoiseTimerInterval
                0x000000003ffe88c4                sdk_sleep_start_wait_time
 *fill*         0x000000003ffe88cc        0x4 
 .data          0x000000003ffe88d0       0x40 ./build/sdklib/libpp.a(rate_control.o)
 .data          0x000000003ffe8910      0x22c ./build/sdklib/libpp.a(trc.o)
 *fill*         0x000000003ffe8b3c        0x4 
 .data          0x000000003ffe8b40       0x10 ./build/sdklib/libpp.a(wdev.o)
 .data          0x000000003ffe8b50        0x0 ./build/sdklib/libwpa.a(ap_config.o)
 .data          0x000000003ffe8b50        0x0 ./build/sdklib/libwpa.a(common.o)
 .data          0x000000003ffe8b50        0x0 ./build/sdklib/libwpa.a(os_xtensa.o)
 .data          0x000000003ffe8b50        0x0 ./build/sdklib/libwpa.a(sha1-pbkdf2.o)
 .data          0x000000003ffe8b50        0x0 ./build/sdklib/libwpa.a(wpa_auth.o)
 .data          0x000000003ffe8b50        0x0 ./build/sdklib/libwpa.a(wpa_auth_ie.o)
 .data          0x000000003ffe8b50        0x0 ./build/sdklib/libwpa.a(wpa.o)
 .data          0x000000003ffe8b50        0x0 ./build/sdklib/libwpa.a(wpa_common.o)
 .data          0x000000003ffe8b50        0x0 ./build/sdklib/libwpa.a(wpa_debug.o)
 .data          0x000000003ffe8b50        0x0 ./build/sdklib/libwpa.a(wpa_ie.o)
 .data          0x000000003ffe8b50        0x0 ./build/sdklib/libwpa.a(wpa_main.o)
 .data          0x000000003ffe8b50        0x0 ./build/sdklib/libwpa.a(wpas_glue.o)
 .data          0x000000003ffe8b50        0x0 ./build/sdklib/libwpa.a(aes-unwrap.o)
 .data          0x000000003ffe8b50        0x0 ./build/sdklib/libwpa.a(aes-wrap.o)
 .data          0x000000003ffe8b50        0x0 ./build/sdklib/libwpa.a(md5.o)
 .data          0x000000003ffe8b50        0x0 ./build/sdklib/libwpa.a(md5-internal.o)
 .data          0x000000003ffe8b50        0x0 ./build/sdklib/libwpa.a(rc4.o)
 .data          0x000000003ffe8b50        0x0 ./build/sdklib/libwpa.a(sha1.o)
 .data          0x000000003ffe8b50        0x0 ./build/sdklib/libwpa.a(sha1-internal.o)
 .data          0x000000003ffe8b50        0x0 ./build/sdklib/libwpa.a(aes-internal-dec.o)
 .data          0x000000003ffe8b50        0x0 ./build/sdklib/libwpa.a(aes-internal-enc.o)
 .data          0x000000003ffe8b50        0x0 ./build/sdklib/libwpa.a(aes-internal.o)
 .data          0x000000003ffe8b50        0x0 ./build/program.a(simple.o)
 .data          0x000000003ffe8b50        0x0 ./build/freertos.a(queue.o)
 .data          0x000000003ffe8b50        0x0 ./build/freertos.a(list.o)
 .data          0x000000003ffe8b50        0x4 ./build/freertos.a(tasks.o)
 .data          0x000000003ffe8b54        0x0 ./build/freertos.a(timers.o)
 .data          0x000000003ffe8b54        0x0 ./build/freertos.a(port.o)
 .data          0x000000003ffe8b54        0x0 ./build/lwip.a(esp_interface.o)
 .data          0x000000003ffe8b54        0x0 ./build/lwip.a(tcpip.o)
 .data          0x000000003ffe8b54        0x4 ./build/lwip.a(dhcp.o)
 .data          0x000000003ffe8b58        0x0 ./build/lwip.a(init.o)
 .data          0x000000003ffe8b58        0x0 ./build/lwip.a(memp.o)
 .data          0x000000003ffe8b58        0x0 ./build/lwip.a(dns.o)
 .data          0x000000003ffe8b58        0x6 ./build/lwip.a(tcp.o)
 .data          0x000000003ffe8b5e        0x0 ./build/lwip.a(pbuf.o)
 .data          0x000000003ffe8b5e        0x0 ./build/lwip.a(netif.o)
 .data          0x000000003ffe8b5e        0x0 ./build/lwip.a(stats.o)
 .data          0x000000003ffe8b5e        0x0 ./build/lwip.a(timers.o)
 .data          0x000000003ffe8b5e        0x2 ./build/lwip.a(udp.o)
 .data          0x000000003ffe8b60        0x0 ./build/lwip.a(tcp_out.o)
 .data          0x000000003ffe8b60        0x0 ./build/lwip.a(ip_addr.o)
 .data          0x000000003ffe8b60        0x0 ./build/lwip.a(ip.o)
 .data          0x000000003ffe8b60        0x0 ./build/lwip.a(inet_chksum.o)
 .data          0x000000003ffe8b60        0x0 ./build/lwip.a(icmp.o)
 .data          0x000000003ffe8b60        0x0 ./build/lwip.a(etharp.o)
 .data          0x000000003ffe8b60        0x0 ./build/lwip.a(sys_arch.o)
 .data          0x000000003ffe8b60        0x0 ./build/lwip.a(sockets.o)
 .data          0x000000003ffe8b60        0x0 ./build/lwip.a(tcp_in.o)
 .data          0x000000003ffe8b60        0x0 ./build/lwip.a(raw.o)
 .data          0x000000003ffe8b60        0x0 ./build/lwip.a(ip_frag.o)
 .data          0x000000003ffe8b60        0x0 ./build/lwip.a(api_lib.o)
 .data          0x000000003ffe8b60        0x0 ./build/lwip.a(netbuf.o)
 .data          0x000000003ffe8b60        0x0 ./build/lwip.a(api_msg.o)
 .data          0x000000003ffe8b60        0x0 ./build/core.a(sdk_compat.o)
 .data          0x000000003ffe8b60        0x0 ./build/core.a(newlib_syscalls.o)
 .data          0x000000003ffe8b60        0x0 /home/olga/esp/esp-open-sdk/xtensa-lx106-elf/xtensa-lx106-elf/sysroot/usr/lib/libhal.a(clock.o)
 .data          0x000000003ffe8b60        0x0 /home/olga/esp/esp-open-sdk/xtensa-lx106-elf/xtensa-lx106-elf/sysroot/usr/lib/libhal.a(int_asm--set_intset.o)
 .data          0x000000003ffe8b60        0x0 /home/olga/esp/esp-open-sdk/xtensa-lx106-elf/lib/gcc/xtensa-lx106-elf/4.8.2/libgcc.a(_divsi3.o)
 .data          0x000000003ffe8b60        0x0 /home/olga/esp/esp-open-sdk/xtensa-lx106-elf/lib/gcc/xtensa-lx106-elf/4.8.2/libgcc.a(_modsi3.o)
 .data          0x000000003ffe8b60        0x0 /home/olga/esp/esp-open-sdk/xtensa-lx106-elf/lib/gcc/xtensa-lx106-elf/4.8.2/libgcc.a(_udivsi3.o)
 .data          0x000000003ffe8b60        0x0 /home/olga/esp/esp-open-sdk/xtensa-lx106-elf/lib/gcc/xtensa-lx106-elf/4.8.2/libgcc.a(_umodsi3.o)
 .data          0x000000003ffe8b60        0x0 /home/olga/esp/esp-open-sdk/xtensa-lx106-elf/lib/gcc/xtensa-lx106-elf/4.8.2/libgcc.a(_ashrdi3.o)
 .data          0x000000003ffe8b60        0x0 /home/olga/esp/esp-open-sdk/xtensa-lx106-elf/lib/gcc/xtensa-lx106-elf/4.8.2/libgcc.a(_addsubsf3.o)
 .data          0x000000003ffe8b60        0x0 /home/olga/esp/esp-open-sdk/xtensa-lx106-elf/lib/gcc/xtensa-lx106-elf/4.8.2/libgcc.a(_mulsf3.o)
 .data          0x000000003ffe8b60        0x0 /home/olga/esp/esp-open-sdk/xtensa-lx106-elf/lib/gcc/xtensa-lx106-elf/4.8.2/libgcc.a(_divsf3.o)
 .data          0x000000003ffe8b60        0x0 /home/olga/esp/esp-open-sdk/xtensa-lx106-elf/lib/gcc/xtensa-lx106-elf/4.8.2/libgcc.a(_fixsfsi.o)
 .data          0x000000003ffe8b60        0x0 /home/olga/esp/esp-open-sdk/xtensa-lx106-elf/lib/gcc/xtensa-lx106-elf/4.8.2/libgcc.a(_fixunssfsi.o)
 .data          0x000000003ffe8b60        0x0 /home/olga/esp/esp-open-sdk/xtensa-lx106-elf/lib/gcc/xtensa-lx106-elf/4.8.2/libgcc.a(_floatsisf.o)
 .data          0x000000003ffe8b60        0x0 /home/olga/esp/esp-open-sdk/xtensa-lx106-elf/lib/gcc/xtensa-lx106-elf/4.8.2/libgcc.a(_addsubdf3.o)
 .data          0x000000003ffe8b60        0x0 /home/olga/esp/esp-open-sdk/xtensa-lx106-elf/lib/gcc/xtensa-lx106-elf/4.8.2/libgcc.a(_muldf3.o)
 .data          0x000000003ffe8b60        0x0 /home/olga/esp/esp-open-sdk/xtensa-lx106-elf/lib/gcc/xtensa-lx106-elf/4.8.2/libgcc.a(_divdf3.o)
 .data          0x000000003ffe8b60        0x0 /home/olga/esp/esp-open-sdk/xtensa-lx106-elf/lib/gcc/xtensa-lx106-elf/4.8.2/libgcc.a(_fixdfsi.o)
 .data          0x000000003ffe8b60        0x0 /home/olga/esp/esp-open-sdk/xtensa-lx106-elf/lib/gcc/xtensa-lx106-elf/4.8.2/libgcc.a(_floatsidf.o)
 .data          0x000000003ffe8b60        0x0 /home/olga/esp/esp-open-sdk/xtensa-lx106-elf/lib/gcc/xtensa-lx106-elf/4.8.2/libgcc.a(_truncdfsf2.o)
 .data          0x000000003ffe8b60        0x0 /home/olga/esp/esp-open-sdk/xtensa-lx106-elf/lib/gcc/xtensa-lx106-elf/4.8.2/libgcc.a(_extendsfdf2.o)
 .data          0x000000003ffe8b60        0x0 /home/olga/esp/esp-open-sdk/xtensa-lx106-elf/lib/gcc/xtensa-lx106-elf/4.8.2/libgcc.a(_muldi3.o)
 .data          0x000000003ffe8b60        0x0 /home/olga/esp/esp-open-sdk/xtensa-lx106-elf/lib/gcc/xtensa-lx106-elf/4.8.2/libgcc.a(_popcountsi2.o)
 .data          0x000000003ffe8b60        0x0 /home/olga/esp/esp-open-sdk/xtensa-lx106-elf/lib/gcc/xtensa-lx106-elf/4.8.2/libgcc.a(_divdi3.o)
 .data          0x000000003ffe8b60        0x0 /home/olga/esp/esp-open-sdk/xtensa-lx106-elf/lib/gcc/xtensa-lx106-elf/4.8.2/libgcc.a(_umoddi3.o)
 .data          0x000000003ffe8b60        0x0 /home/olga/esp/esp-open-sdk/xtensa-lx106-elf/lib/gcc/xtensa-lx106-elf/4.8.2/libgcc.a(_umulsidi3.o)
 .data          0x000000003ffe8b60        0x0 /home/olga/esp/esp-open-sdk/xtensa-lx106-elf/lib/gcc/xtensa-lx106-elf/4.8.2/libgcc.a(_popcount_tab.o)
 .data          0x000000003ffe8b60        0x0 ../../libc/xtensa-lx106-elf/lib/libc.a(lib_a-bzero.o)
 .data          0x000000003ffe8b60        0x0 ../../libc/xtensa-lx106-elf/lib/libc.a(lib_a-calloc.o)
 .data          0x000000003ffe8b60        0x0 ../../libc/xtensa-lx106-elf/lib/libc.a(lib_a-memcmp.o)
 .data          0x000000003ffe8b60        0x0 ../../libc/xtensa-lx106-elf/lib/libc.a(lib_a-mstats.o)
 .data          0x000000003ffe8b60        0x0 ../../libc/xtensa-lx106-elf/lib/libc.a(lib_a-nano-callocr.o)
 .data          0x000000003ffe8b60        0x0 ../../libc/xtensa-lx106-elf/lib/libc.a(lib_a-nano-mallinfor.o)
 .data          0x000000003ffe8b60        0x0 ../../libc/xtensa-lx106-elf/lib/libc.a(lib_a-nano-malloptr.o)
 .data          0x000000003ffe8b60        0x0 ../../libc/xtensa-lx106-elf/lib/libc.a(lib_a-nano-mallstatsr.o)
 .data          0x000000003ffe8b60        0x0 ../../libc/xtensa-lx106-elf/lib/libc.a(lib_a-rand.o)
 .data          0x000000003ffe8b60        0x0 ../../libc/xtensa-lx106-elf/lib/libc.a(lib_a-sprintf.o)
 .data          0x000000003ffe8b60        0x0 ../../libc/xtensa-lx106-elf/lib/libc.a(lib_a-strncmp.o)
 .data          0x000000003ffe8b60        0x0 ../../libc/xtensa-lx106-elf/lib/libc.a(lib_a-strncpy.o)
 .data          0x000000003ffe8b60        0x0 ../../libc/xtensa-lx106-elf/lib/libc.a(lib_a-strrchr.o)
 .data          0x000000003ffe8b60        0x0 ../../libc/xtensa-lx106-elf/lib/libc.a(lib_a-syssbrk.o)
 .data          0x000000003ffe8b60        0x0 ../../libc/xtensa-lx106-elf/lib/libc.a(lib_a-fprintf.o)
 .data          0x000000003ffe8b60        0x0 ../../libc/xtensa-lx106-elf/lib/libc.a(lib_a-nano-svfprintf.o)
 .data          0x000000003ffe8b60        0x0 ../../libc/xtensa-lx106-elf/lib/libc.a(lib_a-strchr.o)
 .data          0x000000003ffe8b60       0x18 ./build/sdklib/libnet80211.a(ieee80211_crypto_ccmp.o)
                0x000000003ffe8b60                sdk_ccmp
 .data          0x000000003ffe8b78       0x18 ./build/sdklib/libnet80211.a(ieee80211_crypto_tkip.o)
                0x000000003ffe8b78                sdk_tkip
 .data          0x000000003ffe8b90       0x18 ./build/sdklib/libnet80211.a(ieee80211_crypto_wep.o)
                0x000000003ffe8b90                sdk_wep
 *(.data.*)
 *(.gnu.linkonce.d.*)
 *(.data1)
 *(.sdata)
 *(.sdata.*)
 *(.gnu.linkonce.s.*)
 *(.sdata2)
 *(.sdata2.*)
 *(.gnu.linkonce.s2.*)
 *(.jcr)
                0x000000003ffe8ba8                _data_end = ABSOLUTE (.)

.rodata         0x000000003ffe8bb0     0x14ac
                0x000000003ffe8bb0                _rodata_start = ABSOLUTE (.)
 *(.rodata)
 .rodata        0x000000003ffe8bb0       0x50 ./build/core.a(app_main.o)
 .rodata        0x000000003ffe8c00        0x4 ../../libc/xtensa-lx106-elf/lib/libc.a(lib_a-impure.o)
                0x000000003ffe8c00                _global_impure_ptr
 *fill*         0x000000003ffe8c04        0x4 
 .rodata        0x000000003ffe8c08        0x8 ./build/sdklib/libnet80211.a(ieee80211.o)
                0x000000003ffe8c08                sdk_ieee80211_opcap
 .rodata        0x000000003ffe8c10        0x4 ./build/sdklib/libnet80211.a(ieee80211_hostap.o)
 .rodata        0x000000003ffe8c14        0x4 ./build/sdklib/libnet80211.a(ieee80211_output.o)
 *fill*         0x000000003ffe8c18        0x8 
 .rodata        0x000000003ffe8c20       0x70 ./build/sdklib/libnet80211.a(ieee80211_proto.o)
 .rodata        0x000000003ffe8c90        0x8 ./build/sdklib/libnet80211.a(wl_cnx.o)
 .rodata        0x000000003ffe8c98        0x8 ./build/sdklib/libphy.a(phy_chip_v6_ana.o)
 .rodata        0x000000003ffe8ca0        0x8 ./build/sdklib/libphy.a(phy_chip_v6.o)
 *fill*         0x000000003ffe8ca8        0x8 
 .rodata        0x000000003ffe8cb0       0x10 ./build/sdklib/libphy.a(phy_chip_v5_romfunc.o)
 .rodata        0x000000003ffe8cc0        0xc ./build/sdklib/libphy.a(phy_chip_v5_ana_romfunc.o)
 *fill*         0x000000003ffe8ccc        0x4 
 .rodata        0x000000003ffe8cd0        0x6 ./build/sdklib/libwpa.a(ap_config.o)
 *fill*         0x000000003ffe8cd6        0x2 
 .rodata        0x000000003ffe8cd8       0x14 ./build/sdklib/libwpa.a(wpa_auth.o)
 *fill*         0x000000003ffe8cec        0x4 
 .rodata        0x000000003ffe8cf0        0x8 ./build/sdklib/libwpa.a(wpa.o)
 *fill*         0x000000003ffe8cf8        0x8 
 .rodata        0x000000003ffe8d00        0xc ./build/sdklib/libwpa.a(wpa_common.o)
 .rodata        0x000000003ffe8d0c        0x2 ./build/sdklib/libwpa.a(sha1-internal.o)
 *fill*         0x000000003ffe8d0e        0x2 
 .rodata        0x000000003ffe8d10        0xa ./build/sdklib/libwpa.a(aes-internal.o)
                0x000000003ffe8d10                sdk_rcons
 *fill*         0x000000003ffe8d1a        0x2 
 .rodata        0x000000003ffe8d1c       0x14 ./build/freertos.a(tasks.o)
 .rodata        0x000000003ffe8d30       0x18 ./build/lwip.a(tcpip.o)
 .rodata        0x000000003ffe8d48       0xf0 ./build/lwip.a(dhcp.o)
 .rodata        0x000000003ffe8e38       0x1c ./build/lwip.a(memp.o)
                0x000000003ffe8e38                memp_sizes
 .rodata        0x000000003ffe8e54       0x74 ./build/lwip.a(tcp.o)
                0x000000003ffe8e74                tcp_pcb_lists
                0x000000003ffe8e84                tcp_persist_backoff
                0x000000003ffe8e8c                tcp_backoff
                0x000000003ffe8e9c                tcp_state_str
 .rodata        0x000000003ffe8ec8       0x14 ./build/lwip.a(pbuf.o)
 .rodata        0x000000003ffe8edc        0x8 ./build/lwip.a(ip_addr.o)
                0x000000003ffe8edc                ip_addr_broadcast
                0x000000003ffe8ee0                ip_addr_any
 .rodata        0x000000003ffe8ee4        0xe ./build/lwip.a(etharp.o)
                0x000000003ffe8ee4                ethzero
                0x000000003ffe8eec                ethbroadcast
 *fill*         0x000000003ffe8ef2        0x2 
 .rodata        0x000000003ffe8ef4       0x84 ./build/lwip.a(sockets.o)
 .rodata        0x000000003ffe8f78       0x20 ./build/lwip.a(tcp_in.o)
 .rodata        0x000000003ffe8f98      0x100 /home/olga/esp/esp-open-sdk/xtensa-lx106-elf/lib/gcc/xtensa-lx106-elf/4.8.2/libgcc.a(_popcount_tab.o)
                0x000000003ffe8f98                __popcount_tab
 *(.rodata.*)
 .rodata.str1.4
                0x000000003ffe9098      0x1c4 ./build/core.a(app_main.o)
 .rodata.str1.1
                0x0000000000000000        0x0 ../../libc/xtensa-lx106-elf/lib/libc.a(lib_a-puts.o)
                                          0x2 (size before relaxing)
 .rodata.str1.1
                0x000000003ffe925c        0x2 ../../libc/xtensa-lx106-elf/lib/libc.a(lib_a-impure.o)
 .rodata.str1.1
                0x000000003ffe925e       0x11 ../../libc/xtensa-lx106-elf/lib/libc.a(lib_a-nano-vfprintf.o)
 .rodata.str1.1
                0x000000003ffe926f        0x8 ../../libc/xtensa-lx106-elf/lib/libc.a(lib_a-locale.o)
                                          0xb (size before relaxing)
 .rodata.str1.1
                0x000000003ffe9277       0x22 ../../libc/xtensa-lx106-elf/lib/libc.a(lib_a-nano-vfprintf_i.o)
 *fill*         0x000000003ffe9299        0x3 
 .rodata.str1.4
                0x000000003ffe929c       0x7b ./build/sdklib/libmain.a(ets_timer.o)
 *fill*         0x000000003ffe9317        0x1 
 .rodata.str1.4
                0x000000003ffe9318      0x196 ./build/sdklib/libmain.a(user_interface.o)
                                        0x1a2 (size before relaxing)
 *fill*         0x000000003ffe94ae        0x2 
 .rodata.str1.4
                0x000000003ffe94b0       0x3f ./build/sdklib/libmain.a(timers.o)
 *fill*         0x000000003ffe94ef        0x1 
 .rodata.str1.4
                0x000000003ffe94f0       0x3f ./build/sdklib/libnet80211.a(ieee80211.o)
                                         0x4a (size before relaxing)
 *fill*         0x000000003ffe952f        0x1 
 .rodata.str1.4
                0x000000003ffe9530       0x19 ./build/sdklib/libnet80211.a(ieee80211_ht.o)
 *fill*         0x000000003ffe9549        0x3 
 .rodata.str1.4
                0x000000003ffe954c       0x27 ./build/sdklib/libnet80211.a(ieee80211_output.o)
                                         0x2f (size before relaxing)
 *fill*         0x000000003ffe9573        0x1 
 .rodata.str1.4
                0x000000003ffe9574       0x24 ./build/sdklib/libnet80211.a(ieee80211_scan.o)
 .rodata.str1.4
                0x000000003ffe9598       0x99 ./build/sdklib/libnet80211.a(wl_cnx.o)
 *fill*         0x000000003ffe9631        0x3 
 .rodata.str1.4
                0x000000003ffe9634       0x3d ./build/sdklib/libphy.a(phy_chip_v6_ana.o)
                                         0x45 (size before relaxing)
 *fill*         0x000000003ffe9671        0x3 
 .rodata.str1.4
                0x000000003ffe9674       0xca ./build/sdklib/libphy.a(phy_chip_v6.o)
                                         0xce (size before relaxing)
 *fill*         0x000000003ffe973e        0x2 
 .rodata.str1.4
                0x000000003ffe9740      0x179 ./build/sdklib/libphy.a(phy_chip_v6_cal.o)
 *fill*         0x000000003ffe98b9        0x3 
 .rodata.str1.4
                0x000000003ffe98bc       0x1d ./build/sdklib/libphy.a(phy_chip_v6_unused.o)
 *fill*         0x000000003ffe98d9        0x3 
 .rodata.str1.4
                0x000000003ffe98dc       0x22 ./build/sdklib/libphy.a(phy_chip_v5_romfunc.o)
 *fill*         0x000000003ffe98fe        0x2 
 .rodata.str1.4
                0x000000003ffe9900       0xbd ./build/sdklib/libphy.a(phy_chip_v5_cal_romfunc.o)
                                         0xe5 (size before relaxing)
 *fill*         0x000000003ffe99bd        0x3 
 .rodata.str1.4
                0x000000003ffe99c0       0x44 ./build/sdklib/libpp.a(if_hwctrl.o)
 .rodata.str1.4
                0x000000003ffe9a04       0x33 ./build/sdklib/libpp.a(lmac.o)
 *fill*         0x000000003ffe9a37        0x1 
 .rodata.str1.4
                0x000000003ffe9a38      0x30a ./build/sdklib/libpp.a(pm.o)
                                        0x326 (size before relaxing)
 *fill*         0x000000003ffe9d42        0x2 
 .rodata.str1.4
                0x000000003ffe9d44       0x74 ./build/sdklib/libpp.a(pp.o)
                                         0x7c (size before relaxing)
 .rodata.str1.4
                0x000000003ffe9db8       0x39 ./build/sdklib/libpp.a(trc.o)
 *fill*         0x000000003ffe9df1        0x3 
 .rodata.str1.4
                0x000000003ffe9df4        0x7 ./build/sdklib/libpp.a(wdev.o)
                                          0xf (size before relaxing)
 *fill*         0x000000003ffe9dfb        0x1 
 .rodata.str1.4
                0x000000003ffe9dfc       0x3c ./build/sdklib/libwpa.a(wpa_auth.o)
                                         0x43 (size before relaxing)
 .rodata.str1.4
                0x0000000000000000       0x17 ./build/sdklib/libwpa.a(wpa.o)
 .rodata.str1.4
                0x000000003ffe9e38        0x9 ./build/sdklib/libwpa.a(wpa_common.o)
 *fill*         0x000000003ffe9e41        0x3 
 .rodata.str1.4
                0x000000003ffe9e44       0x36 ./build/sdklib/libwpa.a(wpa_main.o)
 *fill*         0x000000003ffe9e7a        0x2 
 .rodata.str1.4
                0x000000003ffe9e7c        0x2 ./build/sdklib/libwpa.a(sha1-internal.o)
 *fill*         0x000000003ffe9e7e        0x2 
 .rodata.str1.4
                0x000000003ffe9e80       0x59 ./build/program.a(simple.o)
 *fill*         0x000000003ffe9ed9        0x3 
 .rodata.str1.4
                0x000000003ffe9edc        0x5 ./build/freertos.a(tasks.o)
 *fill*         0x000000003ffe9ee1        0x3 
 .rodata.str1.4
                0x000000003ffe9ee4        0x8 ./build/freertos.a(timers.o)
 .rodata.str1.4
                0x000000003ffe9eec        0xd ./build/lwip.a(tcpip.o)
 *fill*         0x000000003ffe9ef9        0x3 
 .rodata.str1.4
                0x000000003ffe9efc        0xf ./build/lwip.a(dns.o)
 *fill*         0x000000003ffe9f0b        0x1 
 .rodata.str1.4
                0x000000003ffe9f0c       0x78 ./build/lwip.a(tcp.o)
                                         0x76 (size before relaxing)
 .rodata.str1.1
                0x000000003ffe9f84       0x21 ../../libc/xtensa-lx106-elf/lib/libc.a(lib_a-mstats.o)
 .rodata.str1.1
                0x000000003ffe9fa5       0x4b ../../libc/xtensa-lx106-elf/lib/libc.a(lib_a-nano-mallstatsr.o)
 .rodata.str1.1
                0x0000000000000000       0x11 ../../libc/xtensa-lx106-elf/lib/libc.a(lib_a-nano-svfprintf.o)
 *(.gnu.linkonce.r.*)
 *(.rodata1)
                0x000000003ffe9ff0                __XT_EXCEPTION_TABLE__ = ABSOLUTE (.)
 *(.xt_except_table)
 *(.gcc_except_table)
 *(.gnu.linkonce.e.*)
 *(.gnu.version_r)
 *(.eh_frame)
 .eh_frame      0x000000003ffe9ff0       0x38 /home/olga/esp/esp-open-sdk/xtensa-lx106-elf/lib/gcc/xtensa-lx106-elf/4.8.2/libgcc.a(_divdi3.o)
 .eh_frame      0x000000003ffea028       0x2c /home/olga/esp/esp-open-sdk/xtensa-lx106-elf/lib/gcc/xtensa-lx106-elf/4.8.2/libgcc.a(_umoddi3.o)
                                         0x3c (size before relaxing)
                0x000000003ffea054                . = ((. + 0x3) & 0xfffffffffffffffc)
                0x000000003ffea054                __init_array_start = ABSOLUTE (.)
 *crtbegin.o(.ctors)
 *(EXCLUDE_FILE(*crtend.o) .ctors)
 *(SORT(.ctors.*))
 *(.ctors)
                0x000000003ffea054                __init_array_end = ABSOLUTE (.)
 *crtbegin.o(.dtors)
 *(EXCLUDE_FILE(*crtend.o) .dtors)
 *(SORT(.dtors.*))
 *(.dtors)
                0x000000003ffea054                __XT_EXCEPTION_DESCS__ = ABSOLUTE (.)
 *(.xt_except_desc)
 *(.gnu.linkonce.h.*)
                0x000000003ffea054                __XT_EXCEPTION_DESCS_END__ = ABSOLUTE (.)
 *(.xt_except_desc_end)
 *(.dynamic)
 *(.gnu.version_d)
                0x000000003ffea054                . = ALIGN (0x4)
                0x000000003ffea054                _bss_table_start = ABSOLUTE (.)
                0x000000003ffea054        0x4 LONG 0x3ffea060 _bss_start
                0x000000003ffea058        0x4 LONG 0x3fff2670 _bss_end
                0x000000003ffea05c                _bss_table_end = ABSOLUTE (.)
                0x000000003ffea05c                _rodata_end = ABSOLUTE (.)

.bss            0x000000003ffea060     0x8610
                0x000000003ffea060                . = ALIGN (0x8)
                0x000000003ffea060                _bss_start = ABSOLUTE (.)
 *(.dynsbss)
 *(.sbss)
 *(.sbss.*)
 *(.gnu.linkonce.sb.*)
 *(.scommon)
 *(.sbss2)
 *(.sbss2.*)
 *(.gnu.linkonce.sb2.*)
 *(.dynbss)
 *(.bss)
 .bss           0x000000003ffea060      0x474 ./build/core.a(exception_vectors.o)
                0x000000003ffea4d0                NMIHandlerAddress
 .bss           0x000000003ffea4d4        0x0 ./build/core.a(app_main.o)
 .bss           0x000000003ffea4d4        0x0 ../../libc/xtensa-lx106-elf/lib/libc.a(lib_a-malloc.o)
 .bss           0x000000003ffea4d4        0x0 ../../libc/xtensa-lx106-elf/lib/libc.a(lib_a-memcpy.o)
 .bss           0x000000003ffea4d4        0x0 ../../libc/xtensa-lx106-elf/lib/libc.a(lib_a-memset.o)
 .bss           0x000000003ffea4d4        0x0 ../../libc/xtensa-lx106-elf/lib/libc.a(lib_a-nano-freer.o)
 .bss           0x000000003ffea4d4        0x8 ../../libc/xtensa-lx106-elf/lib/libc.a(lib_a-nano-mallocr.o)
                0x000000003ffea4d4                __malloc_sbrk_start
                0x000000003ffea4d8                __malloc_free_list
 .bss           0x000000003ffea4dc        0x0 ../../libc/xtensa-lx106-elf/lib/libc.a(lib_a-printf.o)
 .bss           0x000000003ffea4dc        0x0 ../../libc/xtensa-lx106-elf/lib/libc.a(lib_a-putchar.o)
 .bss           0x000000003ffea4dc        0x0 ../../libc/xtensa-lx106-elf/lib/libc.a(lib_a-putc.o)
 .bss           0x000000003ffea4dc        0x0 ../../libc/xtensa-lx106-elf/lib/libc.a(lib_a-puts.o)
 .bss           0x000000003ffea4dc        0x0 ../../libc/xtensa-lx106-elf/lib/libc.a(lib_a-strlen.o)
 .bss           0x000000003ffea4dc        0x0 ../../libc/xtensa-lx106-elf/lib/libc.a(lib_a-wbuf.o)
 .bss           0x000000003ffea4dc        0x0 ../../libc/xtensa-lx106-elf/lib/libc.a(lib_a-wsetup.o)
 .bss           0x000000003ffea4dc        0x0 ../../libc/xtensa-lx106-elf/lib/libc.a(lock.o)
 .bss           0x000000003ffea4dc        0x0 ../../libc/xtensa-lx106-elf/lib/libc.a(lib_a-fflush.o)
 .bss           0x000000003ffea4dc        0x8 ../../libc/xtensa-lx106-elf/lib/libc.a(lib_a-findfp.o)
 .bss           0x000000003ffea4e4        0x0 ../../libc/xtensa-lx106-elf/lib/libc.a(lib_a-fvwrite.o)
 .bss           0x000000003ffea4e4        0x0 ../../libc/xtensa-lx106-elf/lib/libc.a(lib_a-fwalk.o)
 .bss           0x000000003ffea4e4        0x0 ../../libc/xtensa-lx106-elf/lib/libc.a(lib_a-impure.o)
 .bss           0x000000003ffea4e4        0x0 ../../libc/xtensa-lx106-elf/lib/libc.a(lib_a-makebuf.o)
 .bss           0x000000003ffea4e4        0x0 ../../libc/xtensa-lx106-elf/lib/libc.a(lib_a-memchr.o)
 .bss           0x000000003ffea4e4        0x0 ../../libc/xtensa-lx106-elf/lib/libc.a(lib_a-memmove.o)
 .bss           0x000000003ffea4e4        0x0 ../../libc/xtensa-lx106-elf/lib/libc.a(lib_a-nano-reallocr.o)
 .bss           0x000000003ffea4e4        0x0 ../../libc/xtensa-lx106-elf/lib/libc.a(lib_a-nano-vfprintf.o)
 .bss           0x000000003ffea4e4        0x0 ../../libc/xtensa-lx106-elf/lib/libc.a(lib_a-stdio.o)
 .bss           0x000000003ffea4e4        0x0 ../../libc/xtensa-lx106-elf/lib/libc.a(isatty.o)
 .bss           0x000000003ffea4e4        0x0 ../../libc/xtensa-lx106-elf/lib/libc.a(lib_a-fclose.o)
 .bss           0x000000003ffea4e4        0x0 ../../libc/xtensa-lx106-elf/lib/libc.a(lib_a-fputwc.o)
 .bss           0x000000003ffea4e4        0xc ../../libc/xtensa-lx106-elf/lib/libc.a(lib_a-locale.o)
                0x000000003ffea4e4                _PathLocale
                0x000000003ffea4e8                __mlocale_changed
                0x000000003ffea4ec                __nlocale_changed
 .bss           0x000000003ffea4f0        0x0 ../../libc/xtensa-lx106-elf/lib/libc.a(lib_a-nano-msizer.o)
 .bss           0x000000003ffea4f0        0x0 ../../libc/xtensa-lx106-elf/lib/libc.a(lib_a-nano-vfprintf_i.o)
 .bss           0x000000003ffea4f0        0x0 ../../libc/xtensa-lx106-elf/lib/libc.a(lib_a-strcmp.o)
 .bss           0x000000003ffea4f0        0x0 ../../libc/xtensa-lx106-elf/lib/libc.a(lib_a-wcrtomb.o)
 .bss           0x000000003ffea4f0        0x0 ../../libc/xtensa-lx106-elf/lib/libc.a(lib_a-wctomb_r.o)
 .bss           0x000000003ffea4f0       0x40 ./build/sdklib/libmain.a(ets_timer.o)
                0x000000003ffea4f8                sdk_debug_timer
                0x000000003ffea4fc                sdk_debug_timerfn
 .bss           0x000000003ffea530        0x4 ./build/sdklib/libmain.a(misc.o)
                0x000000003ffea530                sdk__putc1
 .bss           0x000000003ffea534        0x0 ./build/sdklib/libmain.a(spi_flash.o)
 .bss           0x000000003ffea534        0x0 ./build/sdklib/libmain.a(uart.o)
 *fill*         0x000000003ffea534        0xc 
 .bss           0x000000003ffea540      0x131 ./build/sdklib/libmain.a(user_interface.o)
                0x000000003ffea639                sdk_cpu_overclock
                0x000000003ffea63c                sdk_rst_if
                0x000000003ffea65c                sdk_promiscuous_cb
 .bss           0x000000003ffea671        0x0 ./build/sdklib/libmain.a(os_cpu_a.o)
 .bss           0x000000003ffea671        0x0 ./build/sdklib/libmain.a(xtensa_context.o)
 *fill*         0x000000003ffea671        0x3 
 .bss           0x000000003ffea674        0x5 ./build/sdklib/libmain.a(timers.o)
 *fill*         0x000000003ffea679        0x3 
 .bss           0x000000003ffea67c      0x54c ./build/sdklib/libnet80211.a(ieee80211.o)
                0x000000003ffea67c                sdk_g_ic
                0x000000003ffeabc4                sdk_xieee80211Queue
 .bss           0x000000003ffeabc8        0x0 ./build/sdklib/libnet80211.a(ieee80211_crypto.o)
 .bss           0x000000003ffeabc8       0x28 ./build/sdklib/libnet80211.a(ieee80211_hostap.o)
                0x000000003ffeabe8                sdk_TmpSTAAPCloseAP
                0x000000003ffeabe9                sdk_PendFreeBcnEb
 .bss           0x000000003ffeabf0        0x0 ./build/sdklib/libnet80211.a(ieee80211_ht.o)
 .bss           0x000000003ffeabf0        0x0 ./build/sdklib/libnet80211.a(ieee80211_input.o)
 .bss           0x000000003ffeabf0        0x0 ./build/sdklib/libnet80211.a(ieee80211_output.o)
 .bss           0x000000003ffeabf0        0x0 ./build/sdklib/libnet80211.a(ieee80211_phy.o)
 .bss           0x000000003ffeabf0        0x0 ./build/sdklib/libnet80211.a(ieee80211_power.o)
 .bss           0x000000003ffeabf0        0x0 ./build/sdklib/libnet80211.a(ieee80211_proto.o)
 .bss           0x000000003ffeabf0       0xe4 ./build/sdklib/libnet80211.a(ieee80211_scan.o)
                0x000000003ffeabf0                sdk_gScanStruct
                0x000000003ffeacb4                sdk_auth_type
                0x000000003ffeacb6                sdk_scannum
 .bss           0x000000003ffeacd4        0x0 ./build/sdklib/libnet80211.a(ieee80211_sta.o)
 .bss           0x000000003ffeacd4       0x44 ./build/sdklib/libnet80211.a(wl_chm.o)
 .bss           0x000000003ffead18      0x780 ./build/sdklib/libnet80211.a(wl_cnx.o)
                0x000000003ffeb478                sdk_sta_con_timer
                0x000000003ffeb494                sdk_g_cnx_probe_rc_list_cb
 .bss           0x000000003ffeb498        0x0 ./build/sdklib/libnet80211.a(ieee80211_action.o)
 .bss           0x000000003ffeb498        0x0 ./build/sdklib/libnet80211.a(ieee80211_ets.o)
 .bss           0x000000003ffeb498        0x4 ./build/sdklib/libphy.a(phy.o)
 .bss           0x000000003ffeb49c        0x0 ./build/sdklib/libphy.a(phy_chip_v6_ana.o)
 *fill*         0x000000003ffeb49c        0x4 
 .bss           0x000000003ffeb4a0      0x38b ./build/sdklib/libphy.a(phy_chip_v6.o)
                0x000000003ffeb4a0                sdk_rxiq_compute_num
                0x000000003ffeb4a4                sdk_rxdc_init_flag
                0x000000003ffeb4a8                sdk_check_result
                0x000000003ffeb4ac                sdk_chip6_sleep_params
                0x000000003ffeb684                sdk_chip6_phy_init_ctrl
                0x000000003ffeb6f2                sdk_phy_freq_offset
                0x000000003ffeb6f4                sdk_do_pwctrl_flag
                0x000000003ffeb6f5                sdk_pwctrl_debug
                0x000000003ffeb6f6                sdk_txbk_dpdby_flag
                0x000000003ffeb6f8                sdk_sw_scan_mode
                0x000000003ffeb70c                sdk_periodic_cal_dc_num
                0x000000003ffeb710                sdk_periodic_cal_flag
                0x000000003ffeb711                sdk_bbpll_cal_flag
                0x000000003ffeb712                sdk_deep_sleep_en
                0x000000003ffeb718                sdk_noise_array
                0x000000003ffeb820                sdk_tx_pwctrl_atten_init
 *fill*         0x000000003ffeb82b        0x1 
 .bss           0x000000003ffeb82c        0x6 ./build/sdklib/libphy.a(phy_chip_v6_cal.o)
                0x000000003ffeb82c                sdk_loop_pwctrl_pwdet_error_accum_high_power
                0x000000003ffeb82e                sdk_tx_pwctrl_pk_num
                0x000000003ffeb82f                sdk_loop_pwctrl_correct_atten_high_power
                0x000000003ffeb830                sdk_tx_pwctrl_set_chan_flag
                0x000000003ffeb831                sdk_rxiq_cover_fail_num
 .bss           0x000000003ffeb832        0x0 ./build/sdklib/libphy.a(phy_chip_v6_unused.o)
 *fill*         0x000000003ffeb832        0x2 
 .bss           0x000000003ffeb834        0x4 ./build/sdklib/libphy.a(phy_sleep.o)
                0x000000003ffeb834                sdk_periodic_cal_sat
                0x000000003ffeb835                sdk_software_slp_reject
                0x000000003ffeb836                sdk_SDIO_slp_reject
                0x000000003ffeb837                sdk_hardware_reject
 .bss           0x000000003ffeb838        0x0 ./build/sdklib/libphy.a(phy_chip_v5_romfunc.o)
 .bss           0x000000003ffeb838        0x0 ./build/sdklib/libphy.a(phy_chip_v5_ana_romfunc.o)
 .bss           0x000000003ffeb838        0x0 ./build/sdklib/libphy.a(phy_chip_v5_cal_romfunc.o)
 *fill*         0x000000003ffeb838        0x8 
 .bss           0x000000003ffeb840     0x11e8 ./build/sdklib/libpp.a(esf_buf.o)
 *fill*         0x000000003ffeca28        0x8 
 .bss           0x000000003ffeca30       0x30 ./build/sdklib/libpp.a(if_hwctrl.o)
                0x000000003ffeca30                sdk_interface_mask
                0x000000003ffeca40                sdk_if_ctrl
 .bss           0x000000003ffeca60      0x150 ./build/sdklib/libpp.a(lmac.o)
                0x000000003ffeca64                sdk_lmacConfMib
 .bss           0x000000003ffecbb0      0x149 ./build/sdklib/libpp.a(pm.o)
 *fill*         0x000000003ffeccf9        0x7 
 .bss           0x000000003ffecd00      0x352 ./build/sdklib/libpp.a(pp.o)
                0x000000003ffecd28                sdk_pend_flag_noise_check
                0x000000003ffecd30                sdk_pend_flag_periodic_cal
                0x000000003ffecd54                sdk_dbg_stop_sw_wdt
                0x000000003ffecd55                sdk_dbg_stop_hw_wdt
 *fill*         0x000000003ffed052        0xe 
 .bss           0x000000003ffed060      0x100 ./build/sdklib/libpp.a(rate_control.o)
 .bss           0x000000003ffed160      0x268 ./build/sdklib/libpp.a(trc.o)
 *fill*         0x000000003ffed3c8        0x8 
 .bss           0x000000003ffed3d0     0x4721 ./build/sdklib/libpp.a(wdev.o)
                0x000000003ffed3d0                sdk_wDevCtrl
                0x000000003ffed574                sdk_NMIIrqIsOn
                0x000000003ffed578                sdk_WdevTimOffSet
 .bss           0x000000003fff1af1        0x0 ./build/sdklib/libwpa.a(ap_config.o)
 .bss           0x000000003fff1af1        0x0 ./build/sdklib/libwpa.a(common.o)
 .bss           0x000000003fff1af1        0x0 ./build/sdklib/libwpa.a(os_xtensa.o)
 .bss           0x000000003fff1af1        0x0 ./build/sdklib/libwpa.a(sha1-pbkdf2.o)
 .bss           0x000000003fff1af1        0x0 ./build/sdklib/libwpa.a(wpa_auth.o)
 .bss           0x000000003fff1af1        0x0 ./build/sdklib/libwpa.a(wpa_auth_ie.o)
 *fill*         0x000000003fff1af1        0xf 
 .bss           0x000000003fff1b00      0x27a ./build/sdklib/libwpa.a(wpa.o)
 .bss           0x000000003fff1d7a        0x0 ./build/sdklib/libwpa.a(wpa_common.o)
 .bss           0x000000003fff1d7a        0x0 ./build/sdklib/libwpa.a(wpa_debug.o)
 .bss           0x000000003fff1d7a        0x0 ./build/sdklib/libwpa.a(wpa_ie.o)
 .bss           0x000000003fff1d7a        0x0 ./build/sdklib/libwpa.a(wpa_main.o)
 .bss           0x000000003fff1d7a        0x0 ./build/sdklib/libwpa.a(wpas_glue.o)
 .bss           0x000000003fff1d7a        0x0 ./build/sdklib/libwpa.a(aes-unwrap.o)
 .bss           0x000000003fff1d7a        0x0 ./build/sdklib/libwpa.a(aes-wrap.o)
 .bss           0x000000003fff1d7a        0x0 ./build/sdklib/libwpa.a(md5.o)
 .bss           0x000000003fff1d7a        0x0 ./build/sdklib/libwpa.a(md5-internal.o)
 .bss           0x000000003fff1d7a        0x0 ./build/sdklib/libwpa.a(rc4.o)
 .bss           0x000000003fff1d7a        0x0 ./build/sdklib/libwpa.a(sha1.o)
 .bss           0x000000003fff1d7a        0x0 ./build/sdklib/libwpa.a(sha1-internal.o)
 *fill*         0x000000003fff1d7a        0x6 
 .bss           0x000000003fff1d80       0xb0 ./build/sdklib/libwpa.a(aes-internal-dec.o)
 .bss           0x000000003fff1e30        0x0 ./build/sdklib/libwpa.a(aes-internal-enc.o)
 .bss           0x000000003fff1e30        0x0 ./build/sdklib/libwpa.a(aes-internal.o)
 .bss           0x000000003fff1e30        0x4 ./build/program.a(simple.o)
 .bss           0x000000003fff1e34        0x0 ./build/freertos.a(queue.o)
 .bss           0x000000003fff1e34        0x0 ./build/freertos.a(list.o)
 .bss           0x000000003fff1e34      0x1c8 ./build/freertos.a(tasks.o)
                0x000000003fff1e34                pxCurrentTCB
 .bss           0x000000003fff1ffc       0x3c ./build/freertos.a(timers.o)
 .bss           0x000000003fff2038       0x14 ./build/freertos.a(port.o)
 .bss           0x000000003fff204c        0x0 ./build/lwip.a(esp_interface.o)
 .bss           0x000000003fff204c        0xc ./build/lwip.a(tcpip.o)
 .bss           0x000000003fff2058        0x0 ./build/lwip.a(dhcp.o)
 .bss           0x000000003fff2058        0x0 ./build/lwip.a(init.o)
 .bss           0x000000003fff2058        0x0 ./build/lwip.a(memp.o)
 .bss           0x000000003fff2058      0x2b0 ./build/lwip.a(dns.o)
 .bss           0x000000003fff2308        0x2 ./build/lwip.a(tcp.o)
 .bss           0x000000003fff230a        0x0 ./build/lwip.a(pbuf.o)
 .bss           0x000000003fff230a        0x1 ./build/lwip.a(netif.o)
 .bss           0x000000003fff230b        0x0 ./build/lwip.a(stats.o)
 *fill*         0x000000003fff230b        0x1 
 .bss           0x000000003fff230c        0x8 ./build/lwip.a(timers.o)
 .bss           0x000000003fff2314        0x0 ./build/lwip.a(udp.o)
 .bss           0x000000003fff2314        0x0 ./build/lwip.a(tcp_out.o)
 .bss           0x000000003fff2314       0x10 ./build/lwip.a(ip_addr.o)
 .bss           0x000000003fff2324        0x2 ./build/lwip.a(ip.o)
 .bss           0x000000003fff2326        0x0 ./build/lwip.a(inet_chksum.o)
 .bss           0x000000003fff2326        0x0 ./build/lwip.a(icmp.o)
 *fill*         0x000000003fff2326        0x2 
 .bss           0x000000003fff2328       0xcc ./build/lwip.a(etharp.o)
 .bss           0x000000003fff23f4        0x4 ./build/lwip.a(sys_arch.o)
                0x000000003fff23f4                xInsideISR
 .bss           0x000000003fff23f8       0x68 ./build/lwip.a(sockets.o)
 .bss           0x000000003fff2460       0x2c ./build/lwip.a(tcp_in.o)
 .bss           0x000000003fff248c        0x4 ./build/lwip.a(raw.o)
 .bss           0x000000003fff2490        0x0 ./build/lwip.a(ip_frag.o)
 .bss           0x000000003fff2490        0x0 ./build/lwip.a(api_lib.o)
 .bss           0x000000003fff2490        0x0 ./build/lwip.a(netbuf.o)
 .bss           0x000000003fff2490        0x0 ./build/lwip.a(api_msg.o)
 .bss           0x000000003fff2490        0x0 ./build/core.a(sdk_compat.o)
 .bss           0x000000003fff2490        0x4 ./build/core.a(newlib_syscalls.o)
 .bss           0x000000003fff2494        0x0 /home/olga/esp/esp-open-sdk/xtensa-lx106-elf/xtensa-lx106-elf/sysroot/usr/lib/libhal.a(clock.o)
 .bss           0x000000003fff2494        0x0 /home/olga/esp/esp-open-sdk/xtensa-lx106-elf/xtensa-lx106-elf/sysroot/usr/lib/libhal.a(int_asm--set_intset.o)
 .bss           0x000000003fff2494        0x0 /home/olga/esp/esp-open-sdk/xtensa-lx106-elf/lib/gcc/xtensa-lx106-elf/4.8.2/libgcc.a(_divsi3.o)
 .bss           0x000000003fff2494        0x0 /home/olga/esp/esp-open-sdk/xtensa-lx106-elf/lib/gcc/xtensa-lx106-elf/4.8.2/libgcc.a(_modsi3.o)
 .bss           0x000000003fff2494        0x0 /home/olga/esp/esp-open-sdk/xtensa-lx106-elf/lib/gcc/xtensa-lx106-elf/4.8.2/libgcc.a(_udivsi3.o)
 .bss           0x000000003fff2494        0x0 /home/olga/esp/esp-open-sdk/xtensa-lx106-elf/lib/gcc/xtensa-lx106-elf/4.8.2/libgcc.a(_umodsi3.o)
 .bss           0x000000003fff2494        0x0 /home/olga/esp/esp-open-sdk/xtensa-lx106-elf/lib/gcc/xtensa-lx106-elf/4.8.2/libgcc.a(_ashrdi3.o)
 .bss           0x000000003fff2494        0x0 /home/olga/esp/esp-open-sdk/xtensa-lx106-elf/lib/gcc/xtensa-lx106-elf/4.8.2/libgcc.a(_addsubsf3.o)
 .bss           0x000000003fff2494        0x0 /home/olga/esp/esp-open-sdk/xtensa-lx106-elf/lib/gcc/xtensa-lx106-elf/4.8.2/libgcc.a(_mulsf3.o)
 .bss           0x000000003fff2494        0x0 /home/olga/esp/esp-open-sdk/xtensa-lx106-elf/lib/gcc/xtensa-lx106-elf/4.8.2/libgcc.a(_divsf3.o)
 .bss           0x000000003fff2494        0x0 /home/olga/esp/esp-open-sdk/xtensa-lx106-elf/lib/gcc/xtensa-lx106-elf/4.8.2/libgcc.a(_fixsfsi.o)
 .bss           0x000000003fff2494        0x0 /home/olga/esp/esp-open-sdk/xtensa-lx106-elf/lib/gcc/xtensa-lx106-elf/4.8.2/libgcc.a(_fixunssfsi.o)
 .bss           0x000000003fff2494        0x0 /home/olga/esp/esp-open-sdk/xtensa-lx106-elf/lib/gcc/xtensa-lx106-elf/4.8.2/libgcc.a(_floatsisf.o)
 .bss           0x000000003fff2494        0x0 /home/olga/esp/esp-open-sdk/xtensa-lx106-elf/lib/gcc/xtensa-lx106-elf/4.8.2/libgcc.a(_addsubdf3.o)
 .bss           0x000000003fff2494        0x0 /home/olga/esp/esp-open-sdk/xtensa-lx106-elf/lib/gcc/xtensa-lx106-elf/4.8.2/libgcc.a(_muldf3.o)
 .bss           0x000000003fff2494        0x0 /home/olga/esp/esp-open-sdk/xtensa-lx106-elf/lib/gcc/xtensa-lx106-elf/4.8.2/libgcc.a(_divdf3.o)
 .bss           0x000000003fff2494        0x0 /home/olga/esp/esp-open-sdk/xtensa-lx106-elf/lib/gcc/xtensa-lx106-elf/4.8.2/libgcc.a(_fixdfsi.o)
 .bss           0x000000003fff2494        0x0 /home/olga/esp/esp-open-sdk/xtensa-lx106-elf/lib/gcc/xtensa-lx106-elf/4.8.2/libgcc.a(_floatsidf.o)
 .bss           0x000000003fff2494        0x0 /home/olga/esp/esp-open-sdk/xtensa-lx106-elf/lib/gcc/xtensa-lx106-elf/4.8.2/libgcc.a(_truncdfsf2.o)
 .bss           0x000000003fff2494        0x0 /home/olga/esp/esp-open-sdk/xtensa-lx106-elf/lib/gcc/xtensa-lx106-elf/4.8.2/libgcc.a(_extendsfdf2.o)
 .bss           0x000000003fff2494        0x0 /home/olga/esp/esp-open-sdk/xtensa-lx106-elf/lib/gcc/xtensa-lx106-elf/4.8.2/libgcc.a(_muldi3.o)
 .bss           0x000000003fff2494        0x0 /home/olga/esp/esp-open-sdk/xtensa-lx106-elf/lib/gcc/xtensa-lx106-elf/4.8.2/libgcc.a(_popcountsi2.o)
 .bss           0x000000003fff2494        0x0 /home/olga/esp/esp-open-sdk/xtensa-lx106-elf/lib/gcc/xtensa-lx106-elf/4.8.2/libgcc.a(_divdi3.o)
 .bss           0x000000003fff2494        0x0 /home/olga/esp/esp-open-sdk/xtensa-lx106-elf/lib/gcc/xtensa-lx106-elf/4.8.2/libgcc.a(_umoddi3.o)
 .bss           0x000000003fff2494        0x0 /home/olga/esp/esp-open-sdk/xtensa-lx106-elf/lib/gcc/xtensa-lx106-elf/4.8.2/libgcc.a(_umulsidi3.o)
 .bss           0x000000003fff2494        0x0 /home/olga/esp/esp-open-sdk/xtensa-lx106-elf/lib/gcc/xtensa-lx106-elf/4.8.2/libgcc.a(_popcount_tab.o)
 .bss           0x000000003fff2494        0x0 ../../libc/xtensa-lx106-elf/lib/libc.a(lib_a-bzero.o)
 .bss           0x000000003fff2494        0x0 ../../libc/xtensa-lx106-elf/lib/libc.a(lib_a-calloc.o)
 .bss           0x000000003fff2494        0x0 ../../libc/xtensa-lx106-elf/lib/libc.a(lib_a-memcmp.o)
 .bss           0x000000003fff2494        0x0 ../../libc/xtensa-lx106-elf/lib/libc.a(lib_a-mstats.o)
 .bss           0x000000003fff2494        0x0 ../../libc/xtensa-lx106-elf/lib/libc.a(lib_a-nano-callocr.o)
 .bss           0x000000003fff2494       0x28 ../../libc/xtensa-lx106-elf/lib/libc.a(lib_a-nano-mallinfor.o)
                0x000000003fff2494                __malloc_current_mallinfo
 .bss           0x000000003fff24bc        0x0 ../../libc/xtensa-lx106-elf/lib/libc.a(lib_a-nano-malloptr.o)
 .bss           0x000000003fff24bc        0x0 ../../libc/xtensa-lx106-elf/lib/libc.a(lib_a-nano-mallstatsr.o)
 .bss           0x000000003fff24bc        0x0 ../../libc/xtensa-lx106-elf/lib/libc.a(lib_a-rand.o)
 .bss           0x000000003fff24bc        0x0 ../../libc/xtensa-lx106-elf/lib/libc.a(lib_a-sprintf.o)
 .bss           0x000000003fff24bc        0x0 ../../libc/xtensa-lx106-elf/lib/libc.a(lib_a-strncmp.o)
 .bss           0x000000003fff24bc        0x0 ../../libc/xtensa-lx106-elf/lib/libc.a(lib_a-strncpy.o)
 .bss           0x000000003fff24bc        0x0 ../../libc/xtensa-lx106-elf/lib/libc.a(lib_a-strrchr.o)
 .bss           0x000000003fff24bc        0x0 ../../libc/xtensa-lx106-elf/lib/libc.a(lib_a-syssbrk.o)
 .bss           0x000000003fff24bc        0x0 ../../libc/xtensa-lx106-elf/lib/libc.a(lib_a-fprintf.o)
 .bss           0x000000003fff24bc        0x0 ../../libc/xtensa-lx106-elf/lib/libc.a(lib_a-nano-svfprintf.o)
 .bss           0x000000003fff24bc        0x0 ../../libc/xtensa-lx106-elf/lib/libc.a(lib_a-strchr.o)
 .bss           0x000000003fff24bc        0x0 ./build/sdklib/libnet80211.a(ieee80211_crypto_ccmp.o)
 *fill*         0x000000003fff24bc        0x4 
 .bss           0x000000003fff24c0        0x8 ./build/sdklib/libnet80211.a(ieee80211_crypto_tkip.o)
 .bss           0x000000003fff24c8        0x0 ./build/sdklib/libnet80211.a(ieee80211_crypto_wep.o)
 *(.bss.*)
 *(.gnu.linkonce.b.*)
 *(COMMON)
 COMMON         0x000000003fff24c8       0x2d ./build/core.a(app_main.o)
                0x000000003fff24c8                sdk_info
                0x000000003fff24ec                sdk_xWatchDogTaskHandle
                0x000000003fff24f0                sdk_xUserTaskHandle
                0x000000003fff24f4                sdk_user_init_flag
 *fill*         0x000000003fff24f5        0x3 
 COMMON         0x000000003fff24f8       0x48 ./build/freertos.a(port.o)
                0x000000003fff24f8                level1_int_disabled
                0x000000003fff24fc                isr
                0x000000003fff253c                cpu_sr
 COMMON         0x000000003fff2540       0x34 ./build/lwip.a(dhcp.o)
                0x000000003fff2540                dhcp_rx_options_given
                0x000000003fff254c                dhcp_rx_options_val
 COMMON         0x000000003fff2574       0x1c ./build/lwip.a(tcp.o)
                0x000000003fff2574                tcp_active_pcbs_changed
                0x000000003fff2578                tcp_active_pcbs
                0x000000003fff257c                tcp_ticks
                0x000000003fff2580                tcp_listen_pcbs
                0x000000003fff2584                tcp_tmp_pcb
                0x000000003fff2588                tcp_bound_pcbs
                0x000000003fff258c                tcp_tw_pcbs
 COMMON         0x000000003fff2590        0x8 ./build/lwip.a(netif.o)
                0x000000003fff2590                netif_list
                0x000000003fff2594                netif_default
 COMMON         0x000000003fff2598       0xba ./build/lwip.a(stats.o)
                0x000000003fff2598                lwip_stats
 *fill*         0x000000003fff2652        0x2 
 COMMON         0x000000003fff2654        0x4 ./build/lwip.a(udp.o)
                0x000000003fff2654                udp_pcbs
 COMMON         0x000000003fff2658       0x10 ./build/lwip.a(ip.o)
                0x000000003fff2658                current_iphdr_src
                0x000000003fff265c                current_netif
                0x000000003fff2660                current_iphdr_dest
                0x000000003fff2664                current_header
 COMMON         0x000000003fff2668        0x4 ./build/lwip.a(tcp_in.o)
                0x000000003fff2668                tcp_input_pcb
                0x000000003fff2670                . = ALIGN (0x8)
 *fill*         0x000000003fff266c        0x4 
                0x000000003fff2670                _bss_end = ABSOLUTE (.)
                0x000000003fff2670                _heap_start = ABSOLUTE (.)

.text           0x0000000040100000     0x75cd
                0x0000000040100000                _stext = .
                0x0000000040100000                _text_start = ABSOLUTE (.)
                0x0000000040100000                . = ALIGN (0x10)
 *(.vecbase.text)
 .vecbase.text  0x0000000040100000      0x23d ./build/core.a(exception_vectors.o)
                0x0000000040100000                VecBase
                0x000000004010008c                call_user_start
                0x0000000040100229                _xt_user_exit
 *(.entry.text)
 *(.init.literal)
 *(.init)
 *(.iram1.*)
 *fill*         0x000000004010023d        0x3 
 .iram1.text    0x0000000040100240      0x7c4 ./build/core.a(app_main.o)
                                        0x8d0 (size before relaxing)
                0x00000000401002b4                sdk_user_fatal_exception_handler
                0x00000000401003c8                vApplicationStackOverflowHook
                0x00000000401003f4                vApplicationIdleHook
                0x0000000040100418                vApplicationTickHook
                0x0000000040100530                sdk_user_start
 .iram1.text    0x0000000040100a04      0x26b ./build/freertos.a(queue.o)
                                        0x313 (size before relaxing)
                0x0000000040100b50                xQueueGenericSend
                0x0000000040100c68                uxQueueMessagesWaitingFromISR
 *fill*         0x0000000040100c6f        0x1 
 .iram1.text    0x0000000040100c70      0x4d5 ./build/freertos.a(tasks.o)
                                        0x5c8 (size before relaxing)
                0x0000000040100cec                vTaskSuspendAll
                0x0000000040100d10                xTaskIncrementTick
                0x0000000040100ea8                xTaskResumeAll
                0x0000000040100f98                vTaskPlaceOnEventList
                0x0000000040100fe8                xTaskRemoveFromEventList
                0x0000000040101058                vTaskSetTimeOutState
                0x0000000040101070                xTaskCheckForTimeOut
                0x00000000401010e8                vTaskMissedYield
                0x00000000401010f4                vTaskPriorityDisinherit
 *fill*         0x0000000040101145        0x3 
 .iram1.text    0x0000000040101148      0x19a ./build/freertos.a(port.o)
                                        0x1da (size before relaxing)
                0x0000000040101150                SV_ISR
                0x0000000040101198                vPortEnterCritical
                0x00000000401011c0                vPortExitCritical
                0x00000000401011ec                PendSV
                0x0000000040101248                _xt_isr_attach
                0x0000000040101258                _xt_isr_handler
 *fill*         0x00000000401012e2        0x2 
 .iram1.text    0x00000000401012e4       0x1b ./build/core.a(sdk_compat.o)
                0x00000000401012e8                zalloc
 *fill*         0x00000000401012ff        0x1 
 .iram1.text    0x0000000040101300       0x19 ./build/core.a(newlib_syscalls.o)
                0x0000000040101308                _sbrk_r
 *fill*         0x0000000040101319        0x3 
 .iram1.literal
                0x000000004010131c        0x0 ./build/core.a(app_main.o)
 .iram1.literal
                0x000000004010131c        0x0 ./build/freertos.a(queue.o)
 *fill*         0x000000004010131c        0x0 
 .iram1.literal
                0x000000004010131c        0x0 ./build/freertos.a(list.o)
 .iram1.text    0x000000004010131c       0x65 ./build/freertos.a(list.o)
                0x000000004010131c                vListInsertEnd
                0x0000000040101334                vListInsert
                0x0000000040101360                uxListRemove
 *fill*         0x0000000040101381        0x3 
 .iram1.literal
                0x0000000040101384        0x0 ./build/freertos.a(tasks.o)
 .iram1.literal
                0x0000000040101384        0x0 ./build/freertos.a(port.o)
 *fill*         0x0000000040101384        0x0 
 .iram1.literal
                0x0000000040101384        0x0 ./build/core.a(sdk_compat.o)
 *fill*         0x0000000040101384        0x0 
 .iram1.literal
                0x0000000040101384        0x0 ./build/core.a(newlib_syscalls.o)
 *sdklib*:*(.literal .text .literal.* .text.*)
 .text          0x0000000040101384       0x94 ./build/sdklib/libmain.a(ets_timer.o)
                                         0xa0 (size before relaxing)
 .text          0x0000000040101418        0xb ./build/sdklib/libmain.a(misc.o)
                0x000000004010141c                sdk_os_get_cpu_frequency
 *fill*         0x0000000040101423        0x1 
 .text          0x0000000040101424      0x3ac ./build/sdklib/libmain.a(spi_flash.o)
                                        0x47c (size before relaxing)
                0x0000000040101444                sdk_SPIReadModeCnfig
                0x00000000401014c8                sdk_SPIWrite
                0x000000004010159c                sdk_SPIRead
                0x00000000401015cc                sdk_SPIEraseSector
                0x0000000040101618                sdk_spi_flash_get_id
                0x0000000040101684                sdk_spi_flash_read_status
                0x00000000401016c4                sdk_spi_flash_write_status
                0x0000000040101700                sdk_spi_flash_erase_sector
                0x0000000040101734                sdk_spi_flash_write
                0x000000004010178c                sdk_spi_flash_read
 .text          0x00000000401017d0      0x180 ./build/sdklib/libmain.a(user_interface.o)
                                        0x19c (size before relaxing)
                0x00000000401017dc                sdk_system_restart_in_nmi
                0x00000000401018a8                sdk_system_rtc_mem_write
                0x00000000401018fc                sdk_system_rtc_mem_read
 .text          0x0000000040101950      0x13f ./build/sdklib/libmain.a(os_cpu_a.o)
                                        0x177 (size before relaxing)
                0x0000000040101950                vPortYield
                0x000000004010198c                sdk__xt_int_enter
                0x00000000401019a4                sdk__xt_int_exit
                0x00000000401019cc                sdk__xt_timer_int
                0x0000000040101a00                sdk__xt_timer_int1
                0x0000000040101a1c                sdk__xt_tick_timer_init
                0x0000000040101a40                sdk__xt_isr_unmask
                0x0000000040101a58                sdk__xt_isr_mask
                0x0000000040101a70                sdk__xt_read_ints
                0x0000000040101a80                sdk__xt_clear_ints
 *fill*         0x0000000040101a8f        0x1 
 .text          0x0000000040101a90        0xb ./build/sdklib/libnet80211.a(wl_chm.o)
                0x0000000040101a94                sdk_chm_get_current_channel
 *fill*         0x0000000040101a9b        0x1 
 .text          0x0000000040101a9c       0x4f ./build/sdklib/libphy.a(phy.o)
                                         0x53 (size before relaxing)
                0x0000000040101aa4                sdk_register_phy_ops
                0x0000000040101ac4                sdk_phy_change_channel
                0x0000000040101ae0                sdk_phy_get_mactime
 *fill*         0x0000000040101aeb        0x1 
 .text          0x0000000040101aec       0xf7 ./build/sdklib/libphy.a(phy_sleep.o)
                                        0x103 (size before relaxing)
                0x0000000040101b00                sdk_pm_rtc_clock_cali
                0x0000000040101bb8                sdk_clockgate_watchdog
 *fill*         0x0000000040101be3        0x1 
 .text          0x0000000040101be4        0xb ./build/sdklib/libphy.a(phy_chip_v5_romfunc.o)
                0x0000000040101be8                sdk_phy_get_romfuncs
 *fill*         0x0000000040101bef        0x1 
 .text          0x0000000040101bf0       0x94 ./build/sdklib/libpp.a(esf_buf.o)
                                         0xb4 (size before relaxing)
                0x0000000040101bf4                sdk_esf_rx_buf_alloc
 .text          0x0000000040101c84     0x14e4 ./build/sdklib/libpp.a(lmac.o)
                                       0x187c (size before relaxing)
                0x0000000040101c88                sdk_lmacIsActive
                0x0000000040101c9c                sdk_lmacIsIdle
                0x00000000401020e8                sdk_lmacSetAcParam
                0x0000000040102184                sdk_lmacProcessTXStartData
                0x000000004010232c                sdk_lmacProcessTxSuccess
                0x0000000040102474                sdk_GetAccess
                0x0000000040102480                sdk_lmacDiscardAgedMSDU
                0x0000000040102494                sdk_lmacRecycleMPDU
                0x0000000040102974                sdk_lmacProcessCollisions
                0x00000000401029d0                sdk_lmacProcessCollision
                0x0000000040102a54                sdk_lmacMSDUAged
                0x0000000040102dd8                sdk_lmacProcessCtsTimeout
                0x0000000040102e20                sdk_lmacProcessAckTimeout
                0x0000000040102e74                sdk_lmacProcessRtsStart
                0x0000000040102e80                sdk_lmacProcessTxRtsError
                0x0000000040102f18                sdk_lmacProcessTxError
                0x0000000040102f9c                sdk_lmacTxFrame
                0x0000000040103150                sdk_lmacRxDone
 .text          0x0000000040103168      0xe60 ./build/sdklib/libpp.a(pp.o)
                                       0x103c (size before relaxing)
                0x0000000040103198                sdk_pp_soft_wdt_feed
                0x00000000401032b0                sdk_ppProcessTxQ
                0x00000000401033a0                sdk_ppFetchTxQFirstAvail
                0x00000000401033e0                sdk_ppDequeueTxQ
                0x0000000040103408                sdk_ppRollBackTxQ
                0x000000004010342c                sdk_ppRecordBarRRC
                0x000000004010343c                sdk_ppTxqUpdateBitmap
                0x0000000040103460                sdk_ppEnqueueTxDone
                0x0000000040103494                sdk_ppEnqueueRxq
                0x0000000040103c5c                sdk_ppDiscardMPDU
                0x0000000040103c8c                sdk_MacIsrSigPostDefHdl
                0x0000000040103d78                sdk_pp_post
                0x0000000040103e74                sdk_ppCalTxop
                0x0000000040103f58                sdk_ppCalFrameTimes
 .text          0x0000000040103fc8       0xf5 ./build/sdklib/libpp.a(rate_control.o)
                                        0x109 (size before relaxing)
                0x0000000040103fe8                sdk_RC_GetAckRate
                0x0000000040103ff4                sdk_RC_GetRtsRate
                0x0000000040104004                sdk_RC_GetAckTime
                0x0000000040104018                sdk_RC_GetCtsTime
                0x0000000040104050                sdk_RC_GetBlockAckTime
 *fill*         0x00000000401040bd        0x3 
 .text          0x00000000401040c0      0x7f9 ./build/sdklib/libpp.a(trc.o)
                                        0x81d (size before relaxing)
                0x0000000040104238                sdk_rcUpdateTxDone
                0x00000000401042cc                sdk_rcUpdateRxDone
                0x0000000040104328                sdk_rcUpdateDataRxDone
                0x0000000040104340                sdk_rcGetSched
                0x00000000401043e8                sdk_rcGetRate
                0x00000000401047ec                sdk_rcReachRetryLimit
                0x0000000040104804                sdk_trc_NeedRTS
 *fill*         0x00000000401048b9        0x3 
 .text          0x00000000401048bc     0x114f ./build/sdklib/libpp.a(wdev.o)
                                       0x1473 (size before relaxing)
                0x0000000040104c10                sdk_wDev_MacTimSetFunc
                0x0000000040104c30                sdk_wDev_MacTimArm
                0x0000000040104cd4                sdk_wDev_MacTim1Arm
                0x0000000040104db0                sdk_wDev_ProcessFiq
                0x0000000040105154                sdk_wDev_EnableTransmit
                0x0000000040105198                sdk_wDev_DisableTransmit
                0x00000000401051b8                sdk_Tx_Copy2Queue
                0x0000000040105200                sdk_wDev_ProcessCollision
                0x0000000040105224                sdk_wDev_GetTxqCollisions
                0x0000000040105234                sdk_wDev_ClearTxqCollisions
                0x0000000040105250                sdk_wDev_SetWaitingQueue
                0x000000004010529c                sdk_wDev_ClearWaitingQueue
                0x00000000401052bc                sdk_wDev_SetFrameAckType
                0x0000000040105320                sdk_wDev_AppendRxBlocks
                0x00000000401054c8                sdk_wDev_AppendRxAmpduLensBlocks
                0x0000000040105600                sdk_wDev_GetBAInfo
 *fill*         0x0000000040105a0b        0x1 
 .literal       0x0000000040105a0c        0x0 ./build/sdklib/libmain.a(ets_timer.o)
 .literal       0x0000000040105a0c        0x0 ./build/sdklib/libmain.a(misc.o)
 *fill*         0x0000000040105a0c        0x0 
 .literal       0x0000000040105a0c        0x0 ./build/sdklib/libmain.a(spi_flash.o)
 .text          0x0000000040105a0c        0x0 ./build/sdklib/libmain.a(uart.o)
 .literal       0x0000000040105a0c        0x0 ./build/sdklib/libmain.a(user_interface.o)
 .literal       0x0000000040105a0c        0x0 ./build/sdklib/libmain.a(os_cpu_a.o)
 *fill*         0x0000000040105a0c        0x0 
 .text          0x0000000040105a0c       0x3d ./build/sdklib/libmain.a(xtensa_context.o)
                0x0000000040105a0c                sdk__xt_context_save
                0x0000000040105a28                sdk__xt_context_restore
 .text          0x0000000040105a49        0x0 ./build/sdklib/libmain.a(timers.o)
 .text          0x0000000040105a49        0x0 ./build/sdklib/libnet80211.a(ieee80211.o)
 .text          0x0000000040105a49        0x0 ./build/sdklib/libnet80211.a(ieee80211_crypto.o)
 *fill*         0x0000000040105a49        0x3 
 .literal       0x0000000040105a4c        0x0 ./build/sdklib/libnet80211.a(ieee80211_hostap.o)
 .text          0x0000000040105a4c       0x25 ./build/sdklib/libnet80211.a(ieee80211_hostap.o)
 .text          0x0000000040105a71        0x0 ./build/sdklib/libnet80211.a(ieee80211_ht.o)
 .text          0x0000000040105a71        0x0 ./build/sdklib/libnet80211.a(ieee80211_input.o)
 .text          0x0000000040105a71        0x0 ./build/sdklib/libnet80211.a(ieee80211_output.o)
 .text          0x0000000040105a71        0x0 ./build/sdklib/libnet80211.a(ieee80211_phy.o)
 .text          0x0000000040105a71        0x0 ./build/sdklib/libnet80211.a(ieee80211_power.o)
 .text          0x0000000040105a71        0x0 ./build/sdklib/libnet80211.a(ieee80211_proto.o)
 .text          0x0000000040105a71        0x0 ./build/sdklib/libnet80211.a(ieee80211_scan.o)
 .text          0x0000000040105a71        0x0 ./build/sdklib/libnet80211.a(ieee80211_sta.o)
 *fill*         0x0000000040105a71        0x3 
 .literal       0x0000000040105a74        0x0 ./build/sdklib/libnet80211.a(wl_chm.o)
 .text          0x0000000040105a74        0x0 ./build/sdklib/libnet80211.a(wl_cnx.o)
 .text          0x0000000040105a74        0x0 ./build/sdklib/libnet80211.a(ieee80211_action.o)
 .text          0x0000000040105a74        0x0 ./build/sdklib/libnet80211.a(ieee80211_ets.o)
 *fill*         0x0000000040105a74        0x0 
 .literal       0x0000000040105a74        0x0 ./build/sdklib/libphy.a(phy.o)
 .text          0x0000000040105a74        0x0 ./build/sdklib/libphy.a(phy_chip_v6_ana.o)
 *fill*         0x0000000040105a74        0x0 
 .literal       0x0000000040105a74        0x0 ./build/sdklib/libphy.a(phy_chip_v6.o)
 .text          0x0000000040105a74        0x2 ./build/sdklib/libphy.a(phy_chip_v6.o)
                0x0000000040105a74                sdk_ram_tx_mac_disable
 .text          0x0000000040105a76        0x0 ./build/sdklib/libphy.a(phy_chip_v6_cal.o)
 .text          0x0000000040105a76        0x0 ./build/sdklib/libphy.a(phy_chip_v6_unused.o)
 *fill*         0x0000000040105a76        0x2 
 .literal       0x0000000040105a78        0x0 ./build/sdklib/libphy.a(phy_sleep.o)
 *fill*         0x0000000040105a78        0x0 
 .literal       0x0000000040105a78        0x0 ./build/sdklib/libphy.a(phy_chip_v5_romfunc.o)
 .text          0x0000000040105a78        0x0 ./build/sdklib/libphy.a(phy_chip_v5_ana_romfunc.o)
 .text          0x0000000040105a78        0x0 ./build/sdklib/libphy.a(phy_chip_v5_cal_romfunc.o)
 *fill*         0x0000000040105a78        0x0 
 .literal       0x0000000040105a78        0x0 ./build/sdklib/libpp.a(esf_buf.o)
 .text          0x0000000040105a78        0x0 ./build/sdklib/libpp.a(if_hwctrl.o)
 .literal       0x0000000040105a78        0x0 ./build/sdklib/libpp.a(lmac.o)
 .text          0x0000000040105a78        0x0 ./build/sdklib/libpp.a(pm.o)
 .literal       0x0000000040105a78        0x0 ./build/sdklib/libpp.a(pp.o)
 .literal       0x0000000040105a78        0x0 ./build/sdklib/libpp.a(rate_control.o)
 *fill*         0x0000000040105a78        0x0 
 .literal       0x0000000040105a78        0x0 ./build/sdklib/libpp.a(trc.o)
 *fill*         0x0000000040105a78        0x0 
 .literal       0x0000000040105a78        0x0 ./build/sdklib/libpp.a(wdev.o)
 .text          0x0000000040105a78        0x0 ./build/sdklib/libwpa.a(ap_config.o)
 .text          0x0000000040105a78        0x0 ./build/sdklib/libwpa.a(common.o)
 .text          0x0000000040105a78        0x0 ./build/sdklib/libwpa.a(os_xtensa.o)
 .text          0x0000000040105a78        0x0 ./build/sdklib/libwpa.a(sha1-pbkdf2.o)
 *fill*         0x0000000040105a78        0x0 
 .literal       0x0000000040105a78        0x0 ./build/sdklib/libwpa.a(wpa_auth.o)
 .text          0x0000000040105a78       0x11 ./build/sdklib/libwpa.a(wpa_auth.o)
 .text          0x0000000040105a89        0x0 ./build/sdklib/libwpa.a(wpa_auth_ie.o)
 .text          0x0000000040105a89        0x0 ./build/sdklib/libwpa.a(wpa.o)
 .text          0x0000000040105a89        0x0 ./build/sdklib/libwpa.a(wpa_common.o)
 .text          0x0000000040105a89        0x0 ./build/sdklib/libwpa.a(wpa_debug.o)
 .text          0x0000000040105a89        0x0 ./build/sdklib/libwpa.a(wpa_ie.o)
 .text          0x0000000040105a89        0x0 ./build/sdklib/libwpa.a(wpa_main.o)
 .text          0x0000000040105a89        0x0 ./build/sdklib/libwpa.a(wpas_glue.o)
 .text          0x0000000040105a89        0x0 ./build/sdklib/libwpa.a(aes-unwrap.o)
 .text          0x0000000040105a89        0x0 ./build/sdklib/libwpa.a(aes-wrap.o)
 .text          0x0000000040105a89        0x0 ./build/sdklib/libwpa.a(md5.o)
 .text          0x0000000040105a89        0x0 ./build/sdklib/libwpa.a(md5-internal.o)
 .text          0x0000000040105a89        0x0 ./build/sdklib/libwpa.a(rc4.o)
 .text          0x0000000040105a89        0x0 ./build/sdklib/libwpa.a(sha1.o)
 .text          0x0000000040105a89        0x0 ./build/sdklib/libwpa.a(sha1-internal.o)
 .text          0x0000000040105a89        0x0 ./build/sdklib/libwpa.a(aes-internal-dec.o)
 .text          0x0000000040105a89        0x0 ./build/sdklib/libwpa.a(aes-internal-enc.o)
 .text          0x0000000040105a89        0x0 ./build/sdklib/libwpa.a(aes-internal.o)
 .text          0x0000000040105a89        0x0 ./build/sdklib/libnet80211.a(ieee80211_crypto_ccmp.o)
 .text          0x0000000040105a89        0x0 ./build/sdklib/libnet80211.a(ieee80211_crypto_tkip.o)
 .text          0x0000000040105a89        0x0 ./build/sdklib/libnet80211.a(ieee80211_crypto_wep.o)
 *libgcc.a:*i3.o(.literal .text .literal.* .text.*)
 *fill*         0x0000000040105a89        0x3 
 .literal       0x0000000040105a8c        0x0 /home/olga/esp/esp-open-sdk/xtensa-lx106-elf/lib/gcc/xtensa-lx106-elf/4.8.2/libgcc.a(_muldi3.o)
                                          0x4 (size before relaxing)
 .literal       0x0000000040105a8c        0x0 /home/olga/esp/esp-open-sdk/xtensa-lx106-elf/lib/gcc/xtensa-lx106-elf/4.8.2/libgcc.a(_divdi3.o)
                                         0x48 (size before relaxing)
 .literal       0x0000000040105a8c        0x0 /home/olga/esp/esp-open-sdk/xtensa-lx106-elf/lib/gcc/xtensa-lx106-elf/4.8.2/libgcc.a(_umoddi3.o)
                                         0x40 (size before relaxing)
 .literal       0x0000000040105a8c        0x4 ../../libc/xtensa-lx106-elf/lib/libc.a(lib_a-malloc.o)
                                         0x10 (size before relaxing)
 .literal       0x0000000040105a90        0x8 ../../libc/xtensa-lx106-elf/lib/libc.a(lib_a-nano-mallocr.o)
                                         0x14 (size before relaxing)
 .literal       0x0000000040105a98        0x0 ../../libc/xtensa-lx106-elf/lib/libc.a(lib_a-nano-freer.o)
                                          0x4 (size before relaxing)
 .literal       0x0000000040105a98        0x8 ../../libc/xtensa-lx106-elf/lib/libc.a(lib_a-rand.o)
                                         0x18 (size before relaxing)
 .literal       0x0000000040105aa0        0x0 ../../libc/xtensa-lx106-elf/lib/libc.a(lib_a-printf.o)
                                          0xc (size before relaxing)
 .literal       0x0000000040105aa0       0x24 ../../libc/xtensa-lx106-elf/lib/libc.a(lib_a-nano-vfprintf.o)
                                         0x4c (size before relaxing)
 .literal       0x0000000040105ac4        0x0 ../../libc/xtensa-lx106-elf/lib/libc.a(lib_a-sprintf.o)
                                         0x14 (size before relaxing)
 .literal       0x0000000040105ac4        0x0 ../../libc/xtensa-lx106-elf/lib/libc.a(lib_a-fprintf.o)
                                          0xc (size before relaxing)
 .literal       0x0000000040105ac4       0x18 ../../libc/xtensa-lx106-elf/lib/libc.a(lib_a-nano-svfprintf.o)
                                         0x4c (size before relaxing)
 .literal       0x0000000040105adc       0x34 ../../libc/xtensa-lx106-elf/lib/libc.a(lib_a-findfp.o)
                                         0x7c (size before relaxing)
 .literal       0x0000000040105b10        0x8 ../../libc/xtensa-lx106-elf/lib/libc.a(lib_a-fputwc.o)
                                         0x20 (size before relaxing)
 .text          0x0000000040105b18       0x36 /home/olga/esp/esp-open-sdk/xtensa-lx106-elf/lib/gcc/xtensa-lx106-elf/4.8.2/libgcc.a(_muldi3.o)
                0x0000000040105b18                __muldi3
 *fill*         0x0000000040105b4e        0x2 
 .text          0x0000000040105b50      0x3eb /home/olga/esp/esp-open-sdk/xtensa-lx106-elf/lib/gcc/xtensa-lx106-elf/4.8.2/libgcc.a(_divdi3.o)
                                        0x41b (size before relaxing)
                0x0000000040105b50                __divdi3
 *fill*         0x0000000040105f3b        0x1 
 .text          0x0000000040105f3c      0x33a /home/olga/esp/esp-open-sdk/xtensa-lx106-elf/lib/gcc/xtensa-lx106-elf/4.8.2/libgcc.a(_umoddi3.o)
                                        0x366 (size before relaxing)
                0x0000000040105f3c                __umoddi3
 *fill*         0x0000000040106276        0x2 
 .text          0x0000000040106278       0x64 /home/olga/esp/esp-open-sdk/xtensa-lx106-elf/lib/gcc/xtensa-lx106-elf/4.8.2/libgcc.a(_divsi3.o)
                0x0000000040106278                __divsi3
 .text          0x00000000401062dc       0x49 /home/olga/esp/esp-open-sdk/xtensa-lx106-elf/lib/gcc/xtensa-lx106-elf/4.8.2/libgcc.a(_modsi3.o)
                0x00000000401062dc                __modsi3
 *fill*         0x0000000040106325        0x3 
 .text          0x0000000040106328       0x4c /home/olga/esp/esp-open-sdk/xtensa-lx106-elf/lib/gcc/xtensa-lx106-elf/4.8.2/libgcc.a(_udivsi3.o)
                0x0000000040106328                __udivsi3
 .text          0x0000000040106374       0x39 /home/olga/esp/esp-open-sdk/xtensa-lx106-elf/lib/gcc/xtensa-lx106-elf/4.8.2/libgcc.a(_umodsi3.o)
                0x0000000040106374                __umodsi3
 *fill*         0x00000000401063ad        0x3 
 .text          0x00000000401063b0       0x18 /home/olga/esp/esp-open-sdk/xtensa-lx106-elf/lib/gcc/xtensa-lx106-elf/4.8.2/libgcc.a(_ashrdi3.o)
                0x00000000401063b0                __ashrdi3
 *fill*         0x00000000401063c8        0x0 
 *fill*         0x00000000401063c8        0x0 
 *fill*         0x00000000401063c8        0x0 
 .text          0x00000000401063c8       0x48 /home/olga/esp/esp-open-sdk/xtensa-lx106-elf/lib/gcc/xtensa-lx106-elf/4.8.2/libgcc.a(_umulsidi3.o)
                0x00000000401063c8                __umulsidi3
 *libc.a:*malloc.o(.literal .text .literal.* .text.*)
 .text          0x0000000040106410       0x35 ../../libc/xtensa-lx106-elf/lib/libc.a(lib_a-malloc.o)
                0x0000000040106410                malloc
                0x000000004010642c                free
 *libc.a:*mallocr.o(.literal .text .literal.* .text.*)
 *fill*         0x0000000040106445        0x3 
 .text          0x0000000040106448       0xd1 ../../libc/xtensa-lx106-elf/lib/libc.a(lib_a-nano-mallocr.o)
                                         0xd5 (size before relaxing)
                0x0000000040106448                _malloc_r
 *fill*         0x0000000040106519        0x0 
 *libc.a:*freer.o(.literal .text .literal.* .text.*)
 *fill*         0x0000000040106519        0x3 
 .text          0x000000004010651c       0x87 ../../libc/xtensa-lx106-elf/lib/libc.a(lib_a-nano-freer.o)
                0x000000004010651c                _free_r
 *fill*         0x00000000401065a3        0x0 
 *libc.a:*memcpy.o(.literal .text .literal.* .text.*)
 *fill*         0x00000000401065a3        0x1 
 .text          0x00000000401065a4      0x145 ../../libc/xtensa-lx106-elf/lib/libc.a(lib_a-memcpy.o)
                0x00000000401065e8                memcpy
 *libc.a:*memset.o(.literal .text .literal.* .text.*)
 *fill*         0x00000000401066e9        0x3 
 .text          0x00000000401066ec       0x7c ../../libc/xtensa-lx106-elf/lib/libc.a(lib_a-memset.o)
                0x0000000040106718                memset
 *libc.a:*memcmp.o(.literal .text .literal.* .text.*)
 .text          0x0000000040106768       0x23 ../../libc/xtensa-lx106-elf/lib/libc.a(lib_a-memcmp.o)
                0x0000000040106768                memcmp
 *libc.a:*rand.o(.literal .text .literal.* .text.*)
 *fill*         0x000000004010678b        0x1 
 .text          0x000000004010678c       0x4b ../../libc/xtensa-lx106-elf/lib/libc.a(lib_a-rand.o)
                                         0x4f (size before relaxing)
                0x000000004010678c                srand
                0x000000004010679c                rand
 *fill*         0x00000000401067d7        0x0 
 *libc.a:*bzero.o(.literal .text .literal.* .text.*)
 *fill*         0x00000000401067d7        0x1 
 .text          0x00000000401067d8       0x12 ../../libc/xtensa-lx106-elf/lib/libc.a(lib_a-bzero.o)
                0x00000000401067d8                bzero
 *libc.a:*lock.o(.literal .text .literal.* .text.*)
 *fill*         0x00000000401067ea        0x2 
 .text          0x00000000401067ec        0x8 ../../libc/xtensa-lx106-elf/lib/libc.a(lock.o)
                0x00000000401067ec                _lock_close_recursive
                0x00000000401067ec                __dummy_lock
                0x00000000401067ec                _lock_init_recursive
                0x00000000401067ec                _lock_close
                0x00000000401067ec                _lock_init
                0x00000000401067f0                __dummy_lock_try
 *libc.a:*printf.o(.literal .text .literal.* .text.*)
 .text          0x00000000401067f4       0x61 ../../libc/xtensa-lx106-elf/lib/libc.a(lib_a-printf.o)
                                         0x65 (size before relaxing)
                0x00000000401067f4                _printf_r
                0x00000000401067f4                _iprintf_r
                0x0000000040106820                printf
                0x0000000040106820                iprintf
 *fill*         0x0000000040106855        0x3 
 .text          0x0000000040106858      0x3df ../../libc/xtensa-lx106-elf/lib/libc.a(lib_a-nano-vfprintf.o)
                                        0x3e3 (size before relaxing)
                0x0000000040106890                __sfputs_r
                0x0000000040106900                __sprint_r
                0x0000000040106990                _vfiprintf_r
                0x0000000040106990                _vfprintf_r
                0x0000000040106c10                vfiprintf
                0x0000000040106c10                vfprintf
 *fill*         0x0000000040106c37        0x1 
 .text          0x0000000040106c38       0xb5 ../../libc/xtensa-lx106-elf/lib/libc.a(lib_a-sprintf.o)
                                         0xb9 (size before relaxing)
                0x0000000040106c38                _siprintf_r
                0x0000000040106c38                _sprintf_r
                0x0000000040106c90                sprintf
                0x0000000040106c90                siprintf
 *fill*         0x0000000040106ced        0x3 
 .text          0x0000000040106cf0       0x57 ../../libc/xtensa-lx106-elf/lib/libc.a(lib_a-fprintf.o)
                                         0x5b (size before relaxing)
                0x0000000040106cf0                _fprintf_r
                0x0000000040106cf0                _fiprintf_r
                0x0000000040106d14                fprintf
                0x0000000040106d14                fiprintf
 *fill*         0x0000000040106d47        0x1 
 .text          0x0000000040106d48      0x467 ../../libc/xtensa-lx106-elf/lib/libc.a(lib_a-nano-svfprintf.o)
                                        0x46b (size before relaxing)
                0x0000000040106d48                __ssputs_r
                0x0000000040106e40                __ssprint_r
                0x0000000040106f74                _svfprintf_r
                0x0000000040106f74                _svfiprintf_r
 *fill*         0x00000000401071af        0x0 
 *fill*         0x00000000401071af        0x0 
 *fill*         0x00000000401071af        0x0 
 *fill*         0x00000000401071af        0x0 
 *libc.a:*findfp.o(.literal .text .literal.* .text.*)
 *fill*         0x00000000401071af        0x1 
 .text          0x00000000401071b0      0x29f ../../libc/xtensa-lx106-elf/lib/libc.a(lib_a-findfp.o)
                                        0x2b3 (size before relaxing)
                0x00000000401071b0                _cleanup_r
                0x0000000040107254                __sfmoreglue
                0x0000000040107298                _cleanup
                0x00000000401072ac                __sfp_lock_acquire
                0x00000000401072c4                __sfp_lock_release
                0x00000000401072dc                __sinit_lock_acquire
                0x00000000401072f4                __sinit_lock_release
                0x000000004010730c                __sinit
                0x0000000040107364                __sfp
                0x0000000040107410                __fp_lock_all
                0x0000000040107430                __fp_unlock_all
 *fill*         0x000000004010744f        0x0 
 *libc.a:*fputwc.o(.literal .text .literal.* .text.*)
 *fill*         0x000000004010744f        0x1 
 .text          0x0000000040107450      0x176 ../../libc/xtensa-lx106-elf/lib/libc.a(lib_a-fputwc.o)
                                        0x17e (size before relaxing)
                0x0000000040107450                __fputwc
                0x0000000040107520                _fputwc_r
                0x0000000040107590                fputwc
 *fill*         0x00000000401075c6        0x0 
 *libhal.a:*set_intset.o(.literal .text .literal.* .text.*)
 *fill*         0x00000000401075c6        0x2 
 .text          0x00000000401075c8        0x5 /home/olga/esp/esp-open-sdk/xtensa-lx106-elf/xtensa-lx106-elf/sysroot/usr/lib/libhal.a(int_asm--set_intset.o)
                0x00000000401075c8                xthal_set_intset
 *(.stub .gnu.warning .gnu.linkonce.literal.* .gnu.linkonce.t.*.literal .gnu.linkonce.t.*)
 *(.fini.literal)
 *(.fini)
 *(.gnu.version)
                0x00000000401075cd                _text_end = ABSOLUTE (.)
                0x00000000401075cd                _etext = .

.vecbase.literal
                0x00000000401075d0        0x0
 .vecbase.literal
                0x00000000401075d0        0x0 ./build/core.a(exception_vectors.o)

.irom0.text     0x0000000040240000    0x2f760
                0x0000000040240000                _irom0_text_start = ABSOLUTE (.)
 *(.literal .text .literal.* .text.*)
 .text          0x0000000040240000      0x227 ./build/core.a(app_main.o)
                                        0x29f (size before relaxing)
                0x00000000402400d8                sdk_user_init_task
                0x0000000040240190                sdk_uart_rx_one_char
                0x00000000402401b8                sdk_wdt_init
 *fill*         0x0000000040240227        0x1 
 .literal       0x0000000040240228        0x4 ../../libc/xtensa-lx106-elf/lib/libc.a(lib_a-putchar.o)
                                          0xc (size before relaxing)
 .literal       0x000000004024022c        0xc ../../libc/xtensa-lx106-elf/lib/libc.a(lib_a-putc.o)
                                         0x14 (size before relaxing)
 .literal       0x0000000040240238        0xc ../../libc/xtensa-lx106-elf/lib/libc.a(lib_a-puts.o)
                                         0x20 (size before relaxing)
 .literal       0x0000000040240244        0xc ../../libc/xtensa-lx106-elf/lib/libc.a(lib_a-strlen.o)
 .literal       0x0000000040240250        0x0 ../../libc/xtensa-lx106-elf/lib/libc.a(lib_a-wbuf.o)
                                         0x1c (size before relaxing)
 .literal       0x0000000040240250        0x4 ../../libc/xtensa-lx106-elf/lib/libc.a(lib_a-wsetup.o)
                                         0x10 (size before relaxing)
 .literal       0x0000000040240254       0x14 ../../libc/xtensa-lx106-elf/lib/libc.a(lib_a-fflush.o)
                                         0x2c (size before relaxing)
 .literal       0x0000000040240268       0x14 ../../libc/xtensa-lx106-elf/lib/libc.a(lib_a-fvwrite.o)
                                         0x40 (size before relaxing)
 .literal       0x000000004024027c       0x10 ../../libc/xtensa-lx106-elf/lib/libc.a(lib_a-makebuf.o)
                                         0x20 (size before relaxing)
 .literal       0x000000004024028c        0x0 ../../libc/xtensa-lx106-elf/lib/libc.a(lib_a-nano-reallocr.o)
                                         0x18 (size before relaxing)
 .literal       0x000000004024028c        0x4 ../../libc/xtensa-lx106-elf/lib/libc.a(lib_a-stdio.o)
                                         0x24 (size before relaxing)
 .literal       0x0000000040240290        0x0 ../../libc/xtensa-lx106-elf/lib/libc.a(isatty.o)
                                          0x8 (size before relaxing)
 .literal       0x0000000040240290        0xc ../../libc/xtensa-lx106-elf/lib/libc.a(lib_a-fclose.o)
                                         0x30 (size before relaxing)
 .literal       0x000000004024029c       0x1c ../../libc/xtensa-lx106-elf/lib/libc.a(lib_a-locale.o)
                                         0x30 (size before relaxing)
 .literal       0x00000000402402b8       0x10 ../../libc/xtensa-lx106-elf/lib/libc.a(lib_a-nano-vfprintf_i.o)
                                         0x14 (size before relaxing)
 .literal       0x00000000402402c8        0xc ../../libc/xtensa-lx106-elf/lib/libc.a(lib_a-strcmp.o)
                                         0x20 (size before relaxing)
 .literal       0x00000000402402d4        0x4 ../../libc/xtensa-lx106-elf/lib/libc.a(lib_a-wcrtomb.o)
                                         0x10 (size before relaxing)
 .literal       0x00000000402402d8        0x0 ../../libc/xtensa-lx106-elf/lib/libc.a(lib_a-wctomb_r.o)
                                          0x8 (size before relaxing)
 .literal       0x00000000402402d8        0x8 /home/olga/esp/esp-open-sdk/xtensa-lx106-elf/lib/gcc/xtensa-lx106-elf/4.8.2/libgcc.a(_addsubsf3.o)
                                          0xc (size before relaxing)
 .literal       0x00000000402402e0        0x4 /home/olga/esp/esp-open-sdk/xtensa-lx106-elf/lib/gcc/xtensa-lx106-elf/4.8.2/libgcc.a(_mulsf3.o)
                                         0x10 (size before relaxing)
 .literal       0x00000000402402e4        0x0 /home/olga/esp/esp-open-sdk/xtensa-lx106-elf/lib/gcc/xtensa-lx106-elf/4.8.2/libgcc.a(_divsf3.o)
                                         0x10 (size before relaxing)
 .literal       0x00000000402402e4        0x0 /home/olga/esp/esp-open-sdk/xtensa-lx106-elf/lib/gcc/xtensa-lx106-elf/4.8.2/libgcc.a(_fixsfsi.o)
                                          0x4 (size before relaxing)
 .literal       0x00000000402402e4        0x0 /home/olga/esp/esp-open-sdk/xtensa-lx106-elf/lib/gcc/xtensa-lx106-elf/4.8.2/libgcc.a(_fixunssfsi.o)
                                          0x4 (size before relaxing)
 .literal       0x00000000402402e4        0x8 /home/olga/esp/esp-open-sdk/xtensa-lx106-elf/lib/gcc/xtensa-lx106-elf/4.8.2/libgcc.a(_addsubdf3.o)
                                          0xc (size before relaxing)
 .literal       0x00000000402402ec        0x4 /home/olga/esp/esp-open-sdk/xtensa-lx106-elf/lib/gcc/xtensa-lx106-elf/4.8.2/libgcc.a(_muldf3.o)
                                         0x10 (size before relaxing)
 .literal       0x00000000402402f0        0x0 /home/olga/esp/esp-open-sdk/xtensa-lx106-elf/lib/gcc/xtensa-lx106-elf/4.8.2/libgcc.a(_divdf3.o)
                                         0x10 (size before relaxing)
 .literal       0x00000000402402f0        0x0 /home/olga/esp/esp-open-sdk/xtensa-lx106-elf/lib/gcc/xtensa-lx106-elf/4.8.2/libgcc.a(_fixdfsi.o)
                                          0x4 (size before relaxing)
 .literal       0x00000000402402f0        0x4 /home/olga/esp/esp-open-sdk/xtensa-lx106-elf/lib/gcc/xtensa-lx106-elf/4.8.2/libgcc.a(_truncdfsf2.o)
                                          0x8 (size before relaxing)
 .literal       0x00000000402402f4        0x0 /home/olga/esp/esp-open-sdk/xtensa-lx106-elf/lib/gcc/xtensa-lx106-elf/4.8.2/libgcc.a(_extendsfdf2.o)
                                          0x8 (size before relaxing)
 .literal       0x00000000402402f4        0x4 /home/olga/esp/esp-open-sdk/xtensa-lx106-elf/lib/gcc/xtensa-lx106-elf/4.8.2/libgcc.a(_popcountsi2.o)
 .literal       0x00000000402402f8        0x0 ../../libc/xtensa-lx106-elf/lib/libc.a(lib_a-calloc.o)
                                          0x8 (size before relaxing)
 .literal       0x00000000402402f8        0x8 ../../libc/xtensa-lx106-elf/lib/libc.a(lib_a-mstats.o)
                                         0x28 (size before relaxing)
 .literal       0x0000000040240300        0x4 ../../libc/xtensa-lx106-elf/lib/libc.a(lib_a-nano-callocr.o)
                                          0x8 (size before relaxing)
 .literal       0x0000000040240304       0x10 ../../libc/xtensa-lx106-elf/lib/libc.a(lib_a-nano-mallinfor.o)
                                         0x14 (size before relaxing)
 .literal       0x0000000040240314        0xc ../../libc/xtensa-lx106-elf/lib/libc.a(lib_a-nano-mallstatsr.o)
                                         0x24 (size before relaxing)
 .literal       0x0000000040240320        0x0 ../../libc/xtensa-lx106-elf/lib/libc.a(lib_a-strncpy.o)
                                          0xc (size before relaxing)
 .literal       0x0000000040240320        0x0 ../../libc/xtensa-lx106-elf/lib/libc.a(lib_a-strrchr.o)
                                          0x8 (size before relaxing)
 .literal       0x0000000040240320        0x0 ../../libc/xtensa-lx106-elf/lib/libc.a(lib_a-syssbrk.o)
                                          0x8 (size before relaxing)
 .text          0x0000000040240320       0x31 ../../libc/xtensa-lx106-elf/lib/libc.a(lib_a-putchar.o)
                                         0x35 (size before relaxing)
                0x0000000040240320                _putchar_r
                0x0000000040240334                putchar
 *fill*         0x0000000040240351        0x3 
 .text          0x0000000040240354       0xb7 ../../libc/xtensa-lx106-elf/lib/libc.a(lib_a-putc.o)
                0x0000000040240354                _putc_r
                0x00000000402403f0                putc
 *fill*         0x000000004024040b        0x1 
 .text          0x000000004024040c       0xaf ../../libc/xtensa-lx106-elf/lib/libc.a(lib_a-puts.o)
                                         0xb3 (size before relaxing)
                0x000000004024040c                _puts_r
                0x00000000402404a4                puts
 *fill*         0x00000000402404bb        0x1 
 .text          0x00000000402404bc       0x5b ../../libc/xtensa-lx106-elf/lib/libc.a(lib_a-strlen.o)
                0x00000000402404bc                strlen
 *fill*         0x0000000040240517        0x1 
 .text          0x0000000040240518       0xd7 ../../libc/xtensa-lx106-elf/lib/libc.a(lib_a-wbuf.o)
                                         0xdf (size before relaxing)
                0x0000000040240518                __swbuf_r
                0x00000000402405d4                __swbuf
 *fill*         0x00000000402405ef        0x1 
 .text          0x00000000402405f0       0xc9 ../../libc/xtensa-lx106-elf/lib/libc.a(lib_a-wsetup.o)
                0x00000000402405f0                __swsetup_r
 *fill*         0x00000000402406b9        0x3 
 .text          0x00000000402406bc      0x1eb ../../libc/xtensa-lx106-elf/lib/libc.a(lib_a-fflush.o)
                                        0x1ef (size before relaxing)
                0x00000000402406bc                __sflush_r
                0x000000004024081c                _fflush_r
                0x0000000040240880                fflush
 *fill*         0x00000000402408a7        0x1 
 .text          0x00000000402408a8      0x324 ../../libc/xtensa-lx106-elf/lib/libc.a(lib_a-fvwrite.o)
                                        0x334 (size before relaxing)
                0x00000000402408a8                __sfvwrite_r
 .text          0x0000000040240bcc      0x104 ../../libc/xtensa-lx106-elf/lib/libc.a(lib_a-makebuf.o)
                                        0x108 (size before relaxing)
                0x0000000040240bcc                __smakebuf_r
 .text          0x0000000040240cd0       0x73 ../../libc/xtensa-lx106-elf/lib/libc.a(lib_a-nano-reallocr.o)
                0x0000000040240cd0                _realloc_r
 *fill*         0x0000000040240d43        0x1 
 .text          0x0000000040240d44       0xe1 ../../libc/xtensa-lx106-elf/lib/libc.a(lib_a-stdio.o)
                                         0xed (size before relaxing)
                0x0000000040240d44                __sread
                0x0000000040240d7c                __seofread
                0x0000000040240d80                __swrite
                0x0000000040240dd4                __sseek
                0x0000000040240e10                __sclose
 *fill*         0x0000000040240e25        0x3 
 .text          0x0000000040240e28       0x30 ../../libc/xtensa-lx106-elf/lib/libc.a(isatty.o)
                0x0000000040240e28                _isatty_r
 .text          0x0000000040240e58       0xeb ../../libc/xtensa-lx106-elf/lib/libc.a(lib_a-fclose.o)
                                         0xef (size before relaxing)
                0x0000000040240e58                _fclose_r
                0x0000000040240f2c                fclose
 *fill*         0x0000000040240f43        0x1 
 .text          0x0000000040240f44       0x8d ../../libc/xtensa-lx106-elf/lib/libc.a(lib_a-locale.o)
                                         0x95 (size before relaxing)
                0x0000000040240f44                _setlocale_r
                0x0000000040240f8c                __locale_charset
                0x0000000040240f94                __locale_mb_cur_max
                0x0000000040240f9c                __locale_msgcharset
                0x0000000040240fa4                __locale_cjk_lang
                0x0000000040240fa8                _localeconv_r
                0x0000000040240fb0                setlocale
                0x0000000040240fcc                localeconv
 *fill*         0x0000000040240fd1        0x3 
 .text          0x0000000040240fd4      0x4bb ../../libc/xtensa-lx106-elf/lib/libc.a(lib_a-nano-vfprintf_i.o)
                                        0x4bf (size before relaxing)
                0x0000000040240fd4                _printf_common
                0x00000000402410dc                _printf_i
 *fill*         0x000000004024148f        0x1 
 .text          0x0000000040241490       0xff ../../libc/xtensa-lx106-elf/lib/libc.a(lib_a-strcmp.o)
                0x0000000040241490                strcmp
 *fill*         0x000000004024158f        0x1 
 .text          0x0000000040241590       0x7d ../../libc/xtensa-lx106-elf/lib/libc.a(lib_a-wcrtomb.o)
                0x0000000040241590                _wcrtomb_r
                0x00000000402415f0                wcrtomb
 *fill*         0x000000004024160d        0x3 
 .text          0x0000000040241610       0x5d ../../libc/xtensa-lx106-elf/lib/libc.a(lib_a-wctomb_r.o)
                0x0000000040241610                __ascii_wctomb
                0x0000000040241630                _wctomb_r
 *fill*         0x000000004024166d        0x3 
 .text          0x0000000040241670      0x108 ./build/program.a(simple.o)
                                        0x158 (size before relaxing)
                0x0000000040241678                task1
                0x00000000402416b8                task2
                0x0000000040241710                user_init
 .text          0x0000000040241778      0x50d ./build/freertos.a(queue.o)
                                        0x5b9 (size before relaxing)
                0x00000000402417b8                xQueueGenericReset
                0x0000000040241840                xQueueGenericCreate
                0x00000000402418a4                xQueueCreateMutex
                0x000000004024190c                xQueueGenericSendFromISR
                0x0000000040241994                xQueueGenericReceive
                0x0000000040241b14                xQueueReceiveFromISR
                0x0000000040241b88                xQueuePeekFromISR
                0x0000000040241bb4                uxQueueMessagesWaiting
                0x0000000040241bdc                vQueueDelete
                0x0000000040241c00                xQueueIsQueueEmptyFromISR
                0x0000000040241c10                xQueueIsQueueFullFromISR
                0x0000000040241c24                vQueueWaitForMessageRestricted
 *fill*         0x0000000040241c85        0x3 
 .text          0x0000000040241c88      0xa10 ./build/freertos.a(tasks.o)
                                        0xc1c (size before relaxing)
                0x0000000040241ce0                xTaskGenericCreate
                0x0000000040241ec8                vTaskDelete
                0x0000000040241f50                uxTaskPriorityGet
                0x0000000040241f80                vTaskPrioritySet
                0x0000000040242050                xTaskIsTaskSuspended
                0x0000000040242070                vTaskResume
                0x0000000040242108                xTaskResumeFromISR
                0x00000000402421bc                vTaskStartScheduler
                0x0000000040242220                vTaskEndScheduler
                0x0000000040242258                xTaskGetTickCount
                0x0000000040242280                xTaskGetTickCountFromISR
                0x000000004024228c                uxTaskGetNumberOfTasks
                0x0000000040242298                xTaskGetIdleTaskHandle
                0x00000000402422a4                vTaskDelayUntil
                0x000000004024231c                vTaskDelay
                0x0000000040242414                vTaskSwitchContext
                0x00000000402424d8                vTaskSuspend
                0x0000000040242568                vTaskPlaceOnEventListRestricted
                0x00000000402425ac                uxTaskGetStackHighWaterMark
                0x00000000402425dc                xTaskGetCurrentTaskHandle
                0x00000000402425e8                xTaskGetSchedulerState
                0x0000000040242608                vTaskPriorityInherit
 .text          0x0000000040242698      0x3c8 ./build/freertos.a(timers.o)
                                        0x478 (size before relaxing)
                0x0000000040242760                xTimerCreateTimerTask
                0x0000000040242798                xTimerCreate
                0x00000000402427e8                xTimerGenericCommand
                0x0000000040242a28                xTimerGetTimerDaemonTaskHandle
                0x0000000040242a30                xTimerIsTimerActive
                0x0000000040242a5c                pvTimerGetTimerID
 .text          0x0000000040242a60       0xea ./build/freertos.a(port.o)
                                        0x10a (size before relaxing)
                0x0000000040242a64                pxPortInitialiseStack
                0x0000000040242a9c                xPortSysTickHandle
                0x0000000040242acc                xPortStartScheduler
                0x0000000040242b20                xPortGetFreeHeapSize
                0x0000000040242b48                vPortEndScheduler
 *fill*         0x0000000040242b4a        0x2 
 .text          0x0000000040242b4c       0xbb ./build/lwip.a(esp_interface.o)
                                         0xce (size before relaxing)
                0x0000000040242b8c                ethernetif_init
                0x0000000040242bbc                ethernetif_input
 *fill*         0x0000000040242c07        0x1 
 .text          0x0000000040242c08      0x3a2 ./build/lwip.a(tcpip.o)
                                        0x46a (size before relaxing)
                0x0000000040242cdc                tcpip_input
                0x0000000040242d44                tcpip_callback_with_block
                0x0000000040242dc4                tcpip_timeout
                0x0000000040242e24                tcpip_untimeout
                0x0000000040242e78                tcpip_apimsg
                0x0000000040242ebc                tcpip_callbackmsg_new
                0x0000000040242eec                tcpip_callbackmsg_delete
                0x0000000040242f00                tcpip_trycallback
                0x0000000040242f30                tcpip_init
                0x0000000040242f74                pbuf_free_callback
                0x0000000040242f90                mem_free_callback
 *fill*         0x0000000040242faa        0x2 
 .text          0x0000000040242fac     0x1654 ./build/lwip.a(dhcp.o)
                                       0x1828 (size before relaxing)
                0x0000000040243ed8                dhcp_set_struct
                0x0000000040243f00                dhcp_cleanup
                0x0000000040243f24                dhcp_inform
                0x0000000040244024                dhcp_network_changed
                0x0000000040244070                dhcp_arp_reply
                0x0000000040244178                dhcp_renew
                0x0000000040244298                dhcp_coarse_tmr
                0x0000000040244328                dhcp_release
                0x000000004024442c                dhcp_fine_tmr
                0x0000000040244500                dhcp_stop
                0x0000000040244544                dhcp_start
 .text          0x0000000040244600       0x25 ./build/lwip.a(init.o)
                                         0x5d (size before relaxing)
                0x0000000040244600                lwip_init
 *fill*         0x0000000040244625        0x3 
 .text          0x0000000040244628      0x5aa ./build/lwip.a(dns.o)
                                        0x652 (size before relaxing)
                0x0000000040244a2c                dns_init
                0x0000000040244a8c                dns_setserver
                0x0000000040244aac                dns_getserver
                0x0000000040244ac4                dns_tmr
                0x0000000040244ae0                dns_gethostbyname
 *fill*         0x0000000040244bd2        0x2 
 .text          0x0000000040244bd4      0xeaa ./build/lwip.a(tcp.o)
                                       0x100a (size before relaxing)
                0x0000000040244c3c                tcp_init
                0x0000000040244c44                tcp_bind
                0x0000000040244cec                tcp_listen_with_backlog
                0x0000000040244de0                tcp_update_rcv_ann_wnd
                0x0000000040244e28                tcp_recved
                0x0000000040244e74                tcp_seg_free
                0x0000000040244e9c                tcp_segs_free
                0x0000000040244ebc                tcp_setprio
                0x0000000040244ec4                tcp_arg
                0x0000000040244ec8                tcp_recv
                0x0000000040244ed0                tcp_sent
                0x0000000040244ed8                tcp_err
                0x0000000040244ee0                tcp_accept
                0x0000000040244ee4                tcp_poll
                0x0000000040244eec                tcp_pcb_purge
                0x0000000040244f6c                tcp_slowtmr
                0x000000004024524c                tcp_pcb_remove
                0x0000000040245450                tcp_close
                0x0000000040245474                tcp_recv_null
                0x00000000402454b4                tcp_process_refused_data
                0x0000000040245548                tcp_fasttmr
                0x00000000402455d0                tcp_tmr
                0x00000000402455f4                tcp_shutdown
                0x0000000040245668                tcp_abandon
                0x0000000040245718                tcp_abort
                0x0000000040245780                tcp_alloc
                0x00000000402458a0                tcp_new
                0x00000000402458b4                tcp_next_iss
                0x00000000402458c4                tcp_eff_send_mss
                0x00000000402458fc                tcp_connect
                0x0000000040245a74                tcp_debug_state_str
 *fill*         0x0000000040245a7e        0x2 
 .text          0x0000000040245a80      0x69f ./build/lwip.a(pbuf.o)
                                        0x6fb (size before relaxing)
                0x0000000040245a80                pbuf_header
                0x0000000040245b18                pbuf_free
                0x0000000040245b8c                pbuf_alloc
                0x0000000040245cf4                pbuf_realloc
                0x0000000040245d48                pbuf_clen
                0x0000000040245d5c                pbuf_ref
                0x0000000040245d84                pbuf_cat
                0x0000000040245db0                pbuf_chain
                0x0000000040245df0                pbuf_dechain
                0x0000000040245e28                pbuf_copy
                0x0000000040245e9c                pbuf_copy_partial
                0x0000000040245f30                pbuf_take
                0x0000000040245fa8                pbuf_coalesce
                0x0000000040245fe8                pbuf_get_at
                0x000000004024600c                pbuf_memcmp
                0x000000004024607c                pbuf_memfind
                0x00000000402460dc                pbuf_strstr
 *fill*         0x000000004024611f        0x1 
 .text          0x0000000040246120      0x274 ./build/lwip.a(netif.o)
                                        0x2a4 (size before relaxing)
                0x0000000040246120                netif_init
                0x0000000040246124                netif_find
                0x0000000040246158                netif_set_ipaddr
                0x00000000402461c8                netif_set_addr
                0x00000000402461fc                netif_add
                0x0000000040246270                netif_set_gw
                0x0000000040246278                netif_set_netmask
                0x0000000040246284                netif_set_default
                0x000000004024628c                netif_set_up
                0x00000000402462bc                netif_set_down
                0x00000000402462e0                netif_remove
                0x000000004024633c                netif_set_link_up
                0x0000000040246384                netif_set_link_down
 .text          0x0000000040246394      0x286 ./build/lwip.a(timers.o)
                                        0x2fe (size before relaxing)
                0x0000000040246398                sys_timeout
                0x0000000040246420                tcp_timer_needed
                0x00000000402464a0                sys_timeouts_init
                0x000000004024654c                sys_untimeout
                0x000000004024659c                sys_timeouts_mbox_fetch
 *fill*         0x000000004024661a        0x2 
 .text          0x000000004024661c      0x5f5 ./build/lwip.a(udp.o)
                                        0x69d (size before relaxing)
                0x000000004024661c                udp_init
                0x000000004024662c                udp_input
                0x00000000402468a4                udp_bind
                0x000000004024695c                udp_sendto_if
                0x0000000040246aa8                udp_sendto
                0x0000000040246afc                udp_send
                0x0000000040246b18                udp_connect
                0x0000000040246b88                udp_disconnect
                0x0000000040246b9c                udp_recv
                0x0000000040246ba4                udp_remove
                0x0000000040246be0                udp_new
 *fill*         0x0000000040246c11        0x3 
 .text          0x0000000040246c14     0x1013 ./build/lwip.a(tcp_out.o)
                                       0x1147 (size before relaxing)
                0x0000000040246e3c                tcp_write
                0x00000000402471b0                tcp_enqueue_flags
                0x00000000402472a8                tcp_send_fin
                0x0000000040247300                tcp_send_empty_ack
                0x0000000040247394                tcp_output
                0x0000000040247810                tcp_rst
                0x000000004024794c                tcp_rexmit_rto
                0x0000000040247988                tcp_rexmit
                0x0000000040247a48                tcp_rexmit_fast
                0x0000000040247aa8                tcp_keepalive
                0x0000000040247b38                tcp_zero_window_probe
 *fill*         0x0000000040247c27        0x1 
 .text          0x0000000040247c28      0x320 ./build/lwip.a(ip_addr.o)
                                        0x338 (size before relaxing)
                0x0000000040247c28                ip4_addr_isbroadcast
                0x0000000040247c64                ip4_addr_netmask_valid
                0x0000000040247cb0                ipaddr_aton
                0x0000000040247e34                ipaddr_addr
                0x0000000040247e50                ipaddr_ntoa_r
                0x0000000040247f34                ipaddr_ntoa
 .text          0x0000000040247f48      0x517 ./build/lwip.a(ip.o)
                                        0x5a3 (size before relaxing)
                0x0000000040247f48                ip_route
                0x0000000040247f94                ip_input
                0x0000000040248270                ip_output_if
                0x0000000040248408                ip_output
 *fill*         0x000000004024845f        0x1 
 .text          0x0000000040248460      0x2bb ./build/lwip.a(inet_chksum.o)
                                        0x2bf (size before relaxing)
                0x00000000402484e4                inet_chksum_pseudo
                0x00000000402485a8                inet_chksum_pseudo_partial
                0x0000000040248690                inet_chksum
                0x00000000402486ac                inet_chksum_pbuf
 *fill*         0x000000004024871b        0x1 
 .text          0x000000004024871c      0x2b3 ./build/lwip.a(icmp.o)
                                        0x35b (size before relaxing)
                0x000000004024871c                icmp_input
                0x000000004024891c                icmp_dest_unreach
 *fill*         0x00000000402489cf        0x1 
 .text          0x00000000402489d0      0xa3d ./build/lwip.a(etharp.o)
                                        0xb3d (size before relaxing)
                0x0000000040248b60                etharp_tmr
                0x0000000040248bcc                etharp_cleanup_netif
                0x0000000040248c1c                etharp_find_addr
                0x0000000040248c70                etharp_request
                0x0000000040248de8                etharp_query
                0x0000000040248fa8                etharp_output
                0x00000000402490d0                ethernet_input
 *fill*         0x000000004024940d        0x3 
 .text          0x0000000040249410      0x417 ./build/lwip.a(sys_arch.o)
                                        0x4ff (size before relaxing)
                0x0000000040249410                sys_mbox_new
                0x0000000040249454                sys_mbox_free
                0x000000004024948c                sys_mbox_post
                0x00000000402494b8                sys_mbox_trypost
                0x0000000040249504                sys_arch_mbox_fetch
                0x0000000040249584                sys_arch_mbox_tryfetch
                0x00000000402495c4                sys_sem_new
                0x0000000040249634                sys_arch_sem_wait
                0x00000000402496a8                sys_mutex_new
                0x00000000402496f0                sys_mutex_lock
                0x0000000040249714                sys_mutex_unlock
                0x0000000040249730                sys_mutex_free
                0x0000000040249750                sys_sem_signal
                0x0000000040249784                sys_sem_free
                0x00000000402497a4                sys_init
                0x00000000402497a8                sys_now
                0x00000000402497b8                sys_thread_new
                0x00000000402497ec                sys_arch_protect
                0x0000000040249808                sys_arch_unprotect
                0x0000000040249824                sys_assert
 *fill*         0x0000000040249827        0x1 
 .text          0x0000000040249828     0x1505 ./build/lwip.a(sockets.o)
                                       0x1731 (size before relaxing)
                0x0000000040249f28                lwip_socket_init
                0x0000000040249f2c                lwip_accept
                0x000000004024a07c                lwip_bind
                0x000000004024a0f0                lwip_close
                0x000000004024a158                lwip_connect
                0x000000004024a1e0                lwip_listen
                0x000000004024a25c                lwip_recvfrom
                0x000000004024a4a4                lwip_read
                0x000000004024a4bc                lwip_recv
                0x000000004024a4d0                lwip_sendto
                0x000000004024a5a0                lwip_send
                0x000000004024a62c                lwip_socket
                0x000000004024a6c0                lwip_write
                0x000000004024a6d4                lwip_select
                0x000000004024a988                lwip_shutdown
                0x000000004024aa14                lwip_getpeername
                0x000000004024aa28                lwip_getsockname
                0x000000004024aa40                lwip_getsockopt
                0x000000004024ab74                lwip_setsockopt
                0x000000004024ac8c                lwip_ioctl
                0x000000004024ace0                lwip_fcntl
 *fill*         0x000000004024ad2d        0x3 
 .text          0x000000004024ad30     0x10bb ./build/lwip.a(tcp_in.o)
                                       0x1217 (size before relaxing)
                0x000000004024b364                tcp_input
 *fill*         0x000000004024bdeb        0x1 
 .text          0x000000004024bdec      0x1f5 ./build/lwip.a(raw.o)
                                        0x241 (size before relaxing)
                0x000000004024bdf0                raw_input
                0x000000004024be68                raw_bind
                0x000000004024be74                raw_connect
                0x000000004024be80                raw_recv
                0x000000004024be88                raw_sendto
                0x000000004024bf4c                raw_send
                0x000000004024bf64                raw_remove
                0x000000004024bfa0                raw_new
 *fill*         0x000000004024bfe1        0x3 
 .text          0x000000004024bfe4      0x177 ./build/lwip.a(ip_frag.o)
                                        0x1af (size before relaxing)
                0x000000004024bfe4                ip_frag
 *fill*         0x000000004024c15b        0x1 
 .text          0x000000004024c15c      0x673 ./build/lwip.a(api_lib.o)
                                        0x7bf (size before relaxing)
                0x000000004024c2a4                netconn_new_with_proto_and_callback
                0x000000004024c300                netconn_delete
                0x000000004024c330                netconn_getaddr
                0x000000004024c380                netconn_bind
                0x000000004024c3cc                netconn_connect
                0x000000004024c418                netconn_disconnect
                0x000000004024c460                netconn_listen_with_backlog
                0x000000004024c4a4                netconn_accept
                0x000000004024c540                netconn_recv_tcp_pbuf
                0x000000004024c554                netconn_recv
                0x000000004024c5e4                netconn_recved
                0x000000004024c614                netconn_send
                0x000000004024c658                netconn_sendto
                0x000000004024c684                netconn_write_partly
                0x000000004024c734                netconn_close
                0x000000004024c748                netconn_shutdown
                0x000000004024c774                netconn_gethostbyname
 *fill*         0x000000004024c7cf        0x1 
 .text          0x000000004024c7d0      0x172 ./build/lwip.a(netbuf.o)
                                        0x1a2 (size before relaxing)
                0x000000004024c7d0                netbuf_new
                0x000000004024c7f8                netbuf_delete
                0x000000004024c828                netbuf_alloc
                0x000000004024c860                netbuf_free
                0x000000004024c884                netbuf_ref
                0x000000004024c8d4                netbuf_chain
                0x000000004024c900                netbuf_data
                0x000000004024c91c                netbuf_next
                0x000000004024c93c                netbuf_first
 *fill*         0x000000004024c942        0x2 
 .text          0x000000004024c944      0xed7 ./build/lwip.a(api_msg.o)
                                       0x118f (size before relaxing)
                0x000000004024d06c                do_newconn
                0x000000004024d120                netconn_alloc
                0x000000004024d274                netconn_free
                0x000000004024d29c                do_delconn
                0x000000004024d340                do_bind
                0x000000004024d3bc                do_connect
                0x000000004024d470                do_disconnect
                0x000000004024d4b4                do_listen
                0x000000004024d580                do_send
                0x000000004024d618                do_recv
                0x000000004024d674                do_write
                0x000000004024d6d0                do_getaddr
                0x000000004024d770                do_close
                0x000000004024d7dc                do_gethostbyname
 *fill*         0x000000004024d81b        0x1 
 .text          0x000000004024d81c       0x2f ./build/core.a(sdk_compat.o)
                0x000000004024d824                sdk_compat_initialise
 *fill*         0x000000004024d84b        0x1 
 .text          0x000000004024d84c       0xa4 ./build/core.a(newlib_syscalls.o)
                                         0xac (size before relaxing)
                0x000000004024d84c                _write_r
                0x000000004024d898                _read_r
                0x000000004024d8e8                _lseek_r
                0x000000004024d8e8                _fstat_r
                0x000000004024d8e8                _open_r
                0x000000004024d8e8                _close_r
 .text          0x000000004024d8f0      0x1ff /home/olga/esp/esp-open-sdk/xtensa-lx106-elf/lib/gcc/xtensa-lx106-elf/4.8.2/libgcc.a(_addsubsf3.o)
                0x000000004024d90c                __addsf3
                0x000000004024d9f4                __subsf3
 *fill*         0x000000004024daef        0x1 
 .text          0x000000004024daf0      0x15d /home/olga/esp/esp-open-sdk/xtensa-lx106-elf/lib/gcc/xtensa-lx106-elf/4.8.2/libgcc.a(_mulsf3.o)
                0x000000004024db68                __mulsf3
 *fill*         0x000000004024dc4d        0x3 
 .text          0x000000004024dc50      0x135 /home/olga/esp/esp-open-sdk/xtensa-lx106-elf/lib/gcc/xtensa-lx106-elf/4.8.2/libgcc.a(_divsf3.o)
                0x000000004024dccc                __divsf3
 *fill*         0x000000004024dd85        0x3 
 .text          0x000000004024dd88       0x40 /home/olga/esp/esp-open-sdk/xtensa-lx106-elf/lib/gcc/xtensa-lx106-elf/4.8.2/libgcc.a(_fixsfsi.o)
                0x000000004024dd88                __fixsfsi
 .text          0x000000004024ddc8       0x51 /home/olga/esp/esp-open-sdk/xtensa-lx106-elf/lib/gcc/xtensa-lx106-elf/4.8.2/libgcc.a(_fixunssfsi.o)
                0x000000004024ddc8                __fixunssfsi
 *fill*         0x000000004024de19        0x3 
 .text          0x000000004024de1c      0x2f6 /home/olga/esp/esp-open-sdk/xtensa-lx106-elf/lib/gcc/xtensa-lx106-elf/4.8.2/libgcc.a(_addsubdf3.o)
                0x000000004024de3c                __adddf3
                0x000000004024df8c                __subdf3
 *fill*         0x000000004024e112        0x2 
 .text          0x000000004024e114      0x29b /home/olga/esp/esp-open-sdk/xtensa-lx106-elf/lib/gcc/xtensa-lx106-elf/4.8.2/libgcc.a(_muldf3.o)
                0x000000004024e1f4                __muldf3
 *fill*         0x000000004024e3af        0x1 
 .text          0x000000004024e3b0      0x20b /home/olga/esp/esp-open-sdk/xtensa-lx106-elf/lib/gcc/xtensa-lx106-elf/4.8.2/libgcc.a(_divdf3.o)
                0x000000004024e498                __divdf3
 *fill*         0x000000004024e5bb        0x1 
 .text          0x000000004024e5bc       0x48 /home/olga/esp/esp-open-sdk/xtensa-lx106-elf/lib/gcc/xtensa-lx106-elf/4.8.2/libgcc.a(_fixdfsi.o)
                0x000000004024e5bc                __fixdfsi
 .text          0x000000004024e604       0xa0 /home/olga/esp/esp-open-sdk/xtensa-lx106-elf/lib/gcc/xtensa-lx106-elf/4.8.2/libgcc.a(_truncdfsf2.o)
                0x000000004024e604                __truncdfsf2
 .text          0x000000004024e6a4       0x5e /home/olga/esp/esp-open-sdk/xtensa-lx106-elf/lib/gcc/xtensa-lx106-elf/4.8.2/libgcc.a(_extendsfdf2.o)
                0x000000004024e6a4                __extendsfdf2
 *fill*         0x000000004024e702        0x2 
 .text          0x000000004024e704       0x21 /home/olga/esp/esp-open-sdk/xtensa-lx106-elf/lib/gcc/xtensa-lx106-elf/4.8.2/libgcc.a(_popcountsi2.o)
                0x000000004024e704                __popcountsi2
 *fill*         0x000000004024e725        0x3 
 .text          0x000000004024e728       0x1d ../../libc/xtensa-lx106-elf/lib/libc.a(lib_a-calloc.o)
                0x000000004024e728                calloc
 *fill*         0x000000004024e745        0x3 
 .text          0x000000004024e748       0x97 ../../libc/xtensa-lx106-elf/lib/libc.a(lib_a-mstats.o)
                0x000000004024e748                mallinfo
                0x000000004024e768                malloc_stats
                0x000000004024e780                mallopt
                0x000000004024e7a0                _mstats_r
                0x000000004024e7c8                mstats
 *fill*         0x000000004024e7df        0x1 
 .text          0x000000004024e7e0       0x2f ../../libc/xtensa-lx106-elf/lib/libc.a(lib_a-nano-callocr.o)
                0x000000004024e7e0                _calloc_r
 *fill*         0x000000004024e80f        0x1 
 .text          0x000000004024e810       0x66 ../../libc/xtensa-lx106-elf/lib/libc.a(lib_a-nano-mallinfor.o)
                0x000000004024e810                _mallinfo_r
 *fill*         0x000000004024e876        0x2 
 .text          0x000000004024e878       0x4f ../../libc/xtensa-lx106-elf/lib/libc.a(lib_a-nano-mallstatsr.o)
                                         0x53 (size before relaxing)
                0x000000004024e878                _malloc_stats_r
 *fill*         0x000000004024e8c7        0x1 
 .text          0x000000004024e8c8       0xfa ../../libc/xtensa-lx106-elf/lib/libc.a(lib_a-strncpy.o)
                0x000000004024e900                strncpy
 *fill*         0x000000004024e9c2        0x2 
 .text          0x000000004024e9c4       0x3b ../../libc/xtensa-lx106-elf/lib/libc.a(lib_a-strrchr.o)
                0x000000004024e9c4                strrchr
 *fill*         0x000000004024e9ff        0x1 
 .text          0x000000004024ea00       0x19 ../../libc/xtensa-lx106-elf/lib/libc.a(lib_a-syssbrk.o)
                0x000000004024ea00                sbrk
 .text          0x000000004024ea19        0x0 ./build/core.a(exception_vectors.o)
 *fill*         0x000000004024ea19        0x3 
 .literal       0x000000004024ea1c        0x0 ./build/core.a(app_main.o)
 *fill*         0x000000004024ea1c        0x0 
 *fill*         0x000000004024ea1c        0x0 
 *fill*         0x000000004024ea1c        0x0 
 *fill*         0x000000004024ea1c        0x0 
 *fill*         0x000000004024ea1c        0x0 
 *fill*         0x000000004024ea1c        0x0 
 *fill*         0x000000004024ea1c        0x0 
 *fill*         0x000000004024ea1c        0x0 
 .text          0x000000004024ea1c       0xba ../../libc/xtensa-lx106-elf/lib/libc.a(lib_a-fwalk.o)
                0x000000004024ea1c                _fwalk
                0x000000004024ea74                _fwalk_reent
 .text          0x000000004024ead6        0x0 ../../libc/xtensa-lx106-elf/lib/libc.a(lib_a-impure.o)
 *fill*         0x000000004024ead6        0x2 
 .text          0x000000004024ead8       0x17 ../../libc/xtensa-lx106-elf/lib/libc.a(lib_a-memchr.o)
                0x000000004024ead8                memchr
 *fill*         0x000000004024eaef        0x1 
 .text          0x000000004024eaf0       0x3b ../../libc/xtensa-lx106-elf/lib/libc.a(lib_a-memmove.o)
                0x000000004024eaf0                memmove
 *fill*         0x000000004024eb2b        0x0 
 *fill*         0x000000004024eb2b        0x0 
 *fill*         0x000000004024eb2b        0x0 
 *fill*         0x000000004024eb2b        0x0 
 *fill*         0x000000004024eb2b        0x1 
 .text          0x000000004024eb2c       0x16 ../../libc/xtensa-lx106-elf/lib/libc.a(lib_a-nano-msizer.o)
                0x000000004024eb2c                _malloc_usable_size_r
 *fill*         0x000000004024eb42        0x0 
 *fill*         0x000000004024eb42        0x0 
 *fill*         0x000000004024eb42        0x0 
 *fill*         0x000000004024eb42        0x0 
 *fill*         0x000000004024eb42        0x2 
 .literal       0x000000004024eb44        0x0 ./build/program.a(simple.o)
 .literal       0x000000004024eb44        0x0 ./build/freertos.a(queue.o)
 *fill*         0x000000004024eb44        0x0 
 .literal       0x000000004024eb44        0x0 ./build/freertos.a(list.o)
 .text          0x000000004024eb44       0x1a ./build/freertos.a(list.o)
                0x000000004024eb44                vListInitialise
                0x000000004024eb58                vListInitialiseItem
 *fill*         0x000000004024eb5e        0x2 
 .literal       0x000000004024eb60        0x0 ./build/freertos.a(tasks.o)
 .literal       0x000000004024eb60        0x0 ./build/freertos.a(timers.o)
 .literal       0x000000004024eb60        0x0 ./build/freertos.a(port.o)
 *fill*         0x000000004024eb60        0x0 
 .literal       0x000000004024eb60        0x0 ./build/lwip.a(esp_interface.o)
 *fill*         0x000000004024eb60        0x0 
 .literal       0x000000004024eb60        0x0 ./build/lwip.a(tcpip.o)
 *fill*         0x000000004024eb60        0x0 
 .literal       0x000000004024eb60        0x0 ./build/lwip.a(dhcp.o)
 .literal       0x000000004024eb60        0x0 ./build/lwip.a(init.o)
 .text          0x000000004024eb60        0x0 ./build/lwip.a(memp.o)
 *fill*         0x000000004024eb60        0x0 
 .literal       0x000000004024eb60        0x0 ./build/lwip.a(dns.o)
 *fill*         0x000000004024eb60        0x0 
 .literal       0x000000004024eb60        0x0 ./build/lwip.a(tcp.o)
 *fill*         0x000000004024eb60        0x0 
 .literal       0x000000004024eb60        0x0 ./build/lwip.a(pbuf.o)
 *fill*         0x000000004024eb60        0x0 
 .literal       0x000000004024eb60        0x0 ./build/lwip.a(netif.o)
 .literal       0x000000004024eb60        0x0 ./build/lwip.a(stats.o)
 .text          0x000000004024eb60        0x2 ./build/lwip.a(stats.o)
                0x000000004024eb60                stats_init
 *fill*         0x000000004024eb62        0x2 
 .literal       0x000000004024eb64        0x0 ./build/lwip.a(timers.o)
 *fill*         0x000000004024eb64        0x0 
 .literal       0x000000004024eb64        0x0 ./build/lwip.a(udp.o)
 *fill*         0x000000004024eb64        0x0 
 .literal       0x000000004024eb64        0x0 ./build/lwip.a(tcp_out.o)
 *fill*         0x000000004024eb64        0x0 
 .literal       0x000000004024eb64        0x0 ./build/lwip.a(ip_addr.o)
 .literal       0x000000004024eb64        0x0 ./build/lwip.a(ip.o)
 *fill*         0x000000004024eb64        0x0 
 .literal       0x000000004024eb64        0x0 ./build/lwip.a(inet_chksum.o)
 *fill*         0x000000004024eb64        0x0 
 .literal       0x000000004024eb64        0x0 ./build/lwip.a(icmp.o)
 *fill*         0x000000004024eb64        0x0 
 .literal       0x000000004024eb64        0x0 ./build/lwip.a(etharp.o)
 *fill*         0x000000004024eb64        0x0 
 .literal       0x000000004024eb64        0x0 ./build/lwip.a(sys_arch.o)
 *fill*         0x000000004024eb64        0x0 
 .literal       0x000000004024eb64        0x0 ./build/lwip.a(sockets.o)
 *fill*         0x000000004024eb64        0x0 
 .literal       0x000000004024eb64        0x0 ./build/lwip.a(tcp_in.o)
 *fill*         0x000000004024eb64        0x0 
 .literal       0x000000004024eb64        0x0 ./build/lwip.a(raw.o)
 *fill*         0x000000004024eb64        0x0 
 .literal       0x000000004024eb64        0x0 ./build/lwip.a(ip_frag.o)
 *fill*         0x000000004024eb64        0x0 
 .literal       0x000000004024eb64        0x0 ./build/lwip.a(api_lib.o)
 *fill*         0x000000004024eb64        0x0 
 .literal       0x000000004024eb64        0x0 ./build/lwip.a(netbuf.o)
 *fill*         0x000000004024eb64        0x0 
 .literal       0x000000004024eb64        0x0 ./build/lwip.a(api_msg.o)
 *fill*         0x000000004024eb64        0x0 
 .literal       0x000000004024eb64        0x0 ./build/core.a(sdk_compat.o)
 *fill*         0x000000004024eb64        0x0 
 .literal       0x000000004024eb64        0x0 ./build/core.a(newlib_syscalls.o)
 .text          0x000000004024eb64       0x20 /home/olga/esp/esp-open-sdk/xtensa-lx106-elf/xtensa-lx106-elf/sysroot/usr/lib/libhal.a(clock.o)
                0x000000004024eb64                xthal_get_ccount
                0x000000004024eb6c                xthal_set_ccompare
                0x000000004024eb78                xthal_get_ccompare
 *fill*         0x000000004024eb84        0x0 
 *fill*         0x000000004024eb84        0x0 
 *fill*         0x000000004024eb84        0x0 
 *fill*         0x000000004024eb84        0x0 
 .text          0x000000004024eb84       0x44 /home/olga/esp/esp-open-sdk/xtensa-lx106-elf/lib/gcc/xtensa-lx106-elf/4.8.2/libgcc.a(_floatsisf.o)
                0x000000004024eb84                __floatunsisf
                0x000000004024eb8c                __floatsisf
 *fill*         0x000000004024ebc8        0x0 
 *fill*         0x000000004024ebc8        0x0 
 *fill*         0x000000004024ebc8        0x0 
 .text          0x000000004024ebc8       0x36 /home/olga/esp/esp-open-sdk/xtensa-lx106-elf/lib/gcc/xtensa-lx106-elf/4.8.2/libgcc.a(_floatsidf.o)
                0x000000004024ebc8                __floatunsidf
                0x000000004024ebd0                __floatsidf
 *fill*         0x000000004024ebfe        0x0 
 *fill*         0x000000004024ebfe        0x0 
 .text          0x000000004024ebfe        0x0 /home/olga/esp/esp-open-sdk/xtensa-lx106-elf/lib/gcc/xtensa-lx106-elf/4.8.2/libgcc.a(_popcount_tab.o)
 *fill*         0x000000004024ebfe        0x0 
 *fill*         0x000000004024ebfe        0x0 
 *fill*         0x000000004024ebfe        0x0 
 *fill*         0x000000004024ebfe        0x0 
 *fill*         0x000000004024ebfe        0x2 
 .text          0x000000004024ec00        0x4 ../../libc/xtensa-lx106-elf/lib/libc.a(lib_a-nano-malloptr.o)
                0x000000004024ec00                _mallopt_r
 *fill*         0x000000004024ec04        0x0 
 .text          0x000000004024ec04       0x33 ../../libc/xtensa-lx106-elf/lib/libc.a(lib_a-strncmp.o)
                0x000000004024ec04                strncmp
 *fill*         0x000000004024ec37        0x0 
 *fill*         0x000000004024ec37        0x0 
 *fill*         0x000000004024ec37        0x0 
 *fill*         0x000000004024ec37        0x1 
 .text          0x000000004024ec38       0x18 ../../libc/xtensa-lx106-elf/lib/libc.a(lib_a-strchr.o)
                0x000000004024ec38                strchr
 *(.irom.* .irom.*.* .irom0.*)
 .irom0.text    0x000000004024ec50      0x36f ./build/sdklib/libmain.a(ets_timer.o)
                                        0x3f3 (size before relaxing)
                0x000000004024ecc0                sdk_ets_timer_setfn
                0x000000004024ed40                sdk_ets_timer_arm_ms_us
                0x000000004024edcc                sdk_ets_timer_arm_us
                0x000000004024ede0                sdk_ets_timer_arm
                0x000000004024edf4                sdk_ets_timer_disarm
                0x000000004024ee40                sdk_ets_timer_done
                0x000000004024ee6c                sdk_ets_timer_handler_isr
                0x000000004024ef34                sdk_ets_timer_init
 *fill*         0x000000004024efbf        0x1 
 .irom0.text    0x000000004024efc0       0xcc ./build/sdklib/libmain.a(misc.o)
                                         0xe4 (size before relaxing)
                0x000000004024efc4                sdk_os_delay_us
                0x000000004024efc4                sdk_ets_delay_us
                0x000000004024eff4                sdk_os_update_cpu_frequency
                0x000000004024eff4                sdk_ets_update_cpu_frequency
                0x000000004024f000                sdk_os_install_putc1
                0x000000004024f008                sdk_os_putc
                0x000000004024f020                sdk_gpio_output_set
                0x000000004024f044                sdk_rtc_get_reset_reason
 .irom0.text    0x000000004024f08c       0x4e ./build/sdklib/libmain.a(uart.o)
                0x000000004024f08c                sdk_uart_buff_switch
                0x000000004024f0a0                sdk_uart_div_modify
                0x000000004024f0d8                sdk_Uart_Init
 *fill*         0x000000004024f0da        0x2 
 .irom0.text    0x000000004024f0dc     0x2065 ./build/sdklib/libmain.a(user_interface.o)
                                       0x2601 (size before relaxing)
                0x000000004024f27c                sdk_system_pp_recycle_rx_pkt
                0x000000004024f290                sdk_system_adc_read
                0x000000004024f2b0                sdk_system_restart
                0x000000004024f300                sdk_system_restore
                0x000000004024f348                sdk_system_get_boot_version
                0x000000004024f380                sdk_system_get_test_result
                0x000000004024f3a4                sdk_system_get_userbin_addr
                0x000000004024f428                sdk_system_get_boot_mode
                0x000000004024f454                sdk_system_restart_enhance
                0x000000004024f52c                sdk_system_upgrade_userbin_set
                0x000000004024f574                sdk_system_upgrade_userbin_check
                0x000000004024f5b0                sdk_system_upgrade_flag_set
                0x000000004024f5c4                sdk_system_upgrade_flag_check
                0x000000004024f5d8                sdk_system_upgrade_reboot
                0x000000004024f864                sdk_system_deep_sleep
                0x000000004024f8a4                sdk_system_update_cpu_freq
                0x000000004024f900                sdk_system_get_cpu_freq
                0x000000004024f918                sdk_system_overclock
                0x000000004024f944                sdk_system_restoreclock
                0x000000004024f97c                sdk_system_get_time
                0x000000004024f990                sdk_system_relative_time
                0x000000004024f9ac                sdk_system_station_got_ip_set
                0x000000004024fa70                sdk_system_print_meminfo
                0x000000004024fadc                sdk_system_get_free_heap_size
                0x000000004024faf0                sdk_system_get_chip_id
                0x000000004024fb14                sdk_system_rtc_clock_cali_proc
                0x000000004024fb28                sdk_system_get_rtc_time
                0x000000004024fb38                sdk_system_get_rst_info
                0x000000004024fb64                sdk_wifi_station_dhcpc_start
                0x000000004024fbbc                sdk_wifi_station_dhcpc_stop
                0x000000004024fbfc                sdk_wifi_station_dhcpc_status
                0x000000004024fc3c                sdk_wifi_get_opmode
                0x000000004024fc50                sdk_wifi_get_opmode_default
                0x000000004024fcd8                sdk_wifi_set_opmode_local
                0x000000004024fd30                sdk_wifi_set_opmode
                0x000000004024fd44                sdk_wifi_set_opmode_current
                0x000000004024fd58                sdk_system_get_checksum
                0x000000004024fe10                sdk_wifi_param_save_protect
                0x000000004024ffa8                sdk_wifi_station_get_config
                0x000000004024ffbc                sdk_wifi_station_get_config_default
                0x000000004024ffdc                sdk_wifi_station_get_ap_info
                0x0000000040250098                sdk_wifi_station_ap_number_set
                0x0000000040250308                sdk_wifi_station_set_config
                0x000000004025031c                sdk_wifi_station_set_config_current
                0x0000000040250330                sdk_wifi_station_get_current_ap_id
                0x0000000040250344                sdk_wifi_station_ap_check
                0x000000004025037c                sdk_wifi_station_ap_change
                0x0000000040250460                sdk_wifi_station_scan
                0x00000000402504a4                sdk_wifi_station_get_auto_connect
                0x00000000402504b8                sdk_wifi_station_set_auto_connect
                0x00000000402504f0                sdk_wifi_station_connect
                0x0000000040250578                sdk_wifi_station_disconnect
                0x00000000402505d8                sdk_wifi_station_get_connect_status
                0x0000000040250604                sdk_wifi_softap_cacl_mac
                0x0000000040250678                sdk_wifi_softap_set_default_ssid
                0x00000000402507fc                sdk_wifi_softap_get_config
                0x0000000040250810                sdk_wifi_softap_get_config_default
                0x0000000040250a54                sdk_wifi_softap_set_config
                0x0000000040250a68                sdk_wifi_softap_set_config_current
                0x0000000040250a7c                sdk_wifi_softap_set_station_info
                0x0000000040250ae4                sdk_wifi_softap_get_station_info
                0x0000000040250b74                sdk_wifi_softap_free_station_info
                0x0000000040250bac                sdk_wifi_softap_deauth
                0x0000000040250c60                sdk_wifi_get_phy_mode
                0x0000000040250c6c                sdk_wifi_set_phy_mode
                0x0000000040250cf4                sdk_wifi_set_sleep_type
                0x0000000040250d14                sdk_wifi_get_sleep_type
                0x0000000040250d1c                sdk_wifi_get_channel
                0x0000000040250d34                sdk_wifi_set_channel
                0x0000000040250d64                sdk_wifi_promiscuous_set_mac
                0x0000000040250db4                sdk_wifi_promiscuous_enable
                0x0000000040250e60                sdk_wifi_set_promiscuous_rx_cb
                0x0000000040250e68                sdk_wifi_get_ip_info
                0x0000000040250edc                sdk_wifi_set_ip_info
                0x0000000040250f88                sdk_wifi_get_macaddr
                0x0000000040250fe4                sdk_wifi_set_macaddr
                0x0000000040251094                sdk_wifi_status_led_install
                0x00000000402510c8                sdk_system_uart_swap
                0x000000004025113c                sdk_system_get_sdk_version
 *fill*         0x0000000040251141        0x3 
 .irom0.text    0x0000000040251144      0x171 ./build/sdklib/libmain.a(timers.o)
                                        0x1a9 (size before relaxing)
                0x000000004025114c                sdk_os_timer_setfn
                0x00000000402511e8                sdk_os_timer_arm
                0x000000004025128c                sdk_os_timer_disarm
 *fill*         0x00000000402512b5        0x3 
 .irom0.text    0x00000000402512b8      0x30f ./build/sdklib/libnet80211.a(ieee80211.o)
                                        0x3af (size before relaxing)
                0x0000000040251350                sdk_ieee80211_ifattach
                0x00000000402513a0                sdk_ieee80211_mhz2ieee
                0x00000000402513f8                sdk_ieee80211_chan2ieee
                0x0000000040251418                sdk_ieee80211_ieee2mhz
                0x0000000040251450                sdk_ieee80211_find_channel
                0x0000000040251478                sdk_ieee80211_find_channel_byieee
                0x00000000402514c0                sdk_wifi_mode_set
 *fill*         0x00000000402515c7        0x1 
 .irom0.text    0x00000000402515c8       0xb6 ./build/sdklib/libnet80211.a(ieee80211_crypto.o)
                                         0xbe (size before relaxing)
                0x00000000402515c8                sdk_ieee80211_crypto_attach
                0x00000000402515cc                sdk_ieee80211_crypto_available
                0x00000000402515d0                sdk_ieee80211_crypto_setkey
                0x00000000402515d4                sdk_ieee80211_crypto_encap
                0x0000000040251624                sdk_ieee80211_crypto_decap
 *fill*         0x000000004025167e        0x2 
 .irom0.text    0x0000000040251680      0xf65 ./build/sdklib/libnet80211.a(ieee80211_hostap.o)
                                       0x1259 (size before relaxing)
                0x00000000402519b0                sdk_ieee80211_hostap_attach
                0x0000000040251a60                sdk_hostap_handle_timer
                0x0000000040251ae8                sdk_hostap_input
                0x00000000402523dc                sdk_wifi_softap_start
                0x0000000040252528                sdk_wifi_softap_stop
 *fill*         0x00000000402525e5        0x3 
 .irom0.text    0x00000000402525e8      0xa94 ./build/sdklib/libnet80211.a(ieee80211_ht.o)
                                        0xb54 (size before relaxing)
                0x00000000402525f8                sdk_ieee80211_ht_attach
                0x0000000040252648                sdk_ieee80211_ht_node_init
                0x000000004025268c                sdk_ieee80211_ht_node_cleanup
                0x00000000402526c4                sdk_ieee80211_parse_htcap
                0x000000004025279c                sdk_ieee80211_ht_updateparams
                0x00000000402528b8                sdk_ieee80211_setup_htrates
                0x000000004025298c                sdk_ieee80211_setup_basic_htrates
                0x0000000040252cf4                sdk_ieee80211_add_htcap
                0x0000000040252d10                sdk_ieee80211_add_htcap_vendor
                0x0000000040252e34                sdk_ieee80211_add_htinfo
                0x0000000040252e50                sdk_ieee80211_add_htinfo_vendor
 .irom0.text    0x000000004025307c      0x8d8 ./build/sdklib/libnet80211.a(ieee80211_input.o)
                                        0x950 (size before relaxing)
                0x000000004025307c                sdk_ieee80211_deliver_data
                0x00000000402530d0                sdk_ieee80211_decap
                0x00000000402531d8                sdk_ieee80211_setup_rates
                0x0000000040253244                sdk_ieee80211_alloc_challenge
                0x0000000040253278                sdk_ieee80211_parse_beacon
                0x00000000402536e4                sdk_ieee80211_parse_wpa
                0x00000000402537fc                sdk_ieee80211_parse_rsn
                0x00000000402538f8                sdk_ieee80211_parse_action
                0x0000000040253950                sdk_ieee80211_setup_rateset
 .irom0.text    0x0000000040253954     0x17cb ./build/sdklib/libnet80211.a(ieee80211_output.o)
                                       0x1a2f (size before relaxing)
                0x000000004025395c                sdk_ieee80211_output_pbuf
                0x0000000040253bdc                sdk_ieee80211_send_setup
                0x0000000040253d08                sdk_ieee80211_mgmt_output
                0x0000000040253dfc                sdk_ieee80211_tx_mgt_cb
                0x0000000040253e00                sdk_ieee80211_send_nulldata
                0x0000000040254258                sdk_ieee80211_add_rates
                0x0000000040254290                sdk_ieee80211_add_xrates
                0x000000004025432c                sdk_ieee80211_send_probereq
                0x00000000402544d8                sdk_ieee80211_getcapinfo
                0x0000000040254534                sdk_ieee80211_send_mgmt
                0x0000000040254a98                sdk_ieee80211_alloc_proberesp
                0x0000000040254c94                sdk_ieee80211_send_proberesp
                0x0000000040254fd4                sdk_ieee80211_beacon_alloc
 *fill*         0x000000004025511f        0x1 
 .irom0.text    0x0000000040255120      0x147 ./build/sdklib/libnet80211.a(ieee80211_phy.o)
                                        0x16f (size before relaxing)
                0x0000000040255124                sdk_ieee80211_get_11g_ratetable
                0x0000000040255130                sdk_ieee80211_get_ratetable
                0x0000000040255148                sdk_ieee80211_phy_init
                0x000000004025517c                sdk_ieee80211_phy_type_get
                0x000000004025518c                sdk_ieee80211_setup_ratetable
                0x00000000402551c0                sdk_ieee80211_compute_duration
                0x0000000040255240                sdk_ieee80211_dot11Rate_rix
 *fill*         0x0000000040255267        0x1 
 .irom0.text    0x0000000040255268      0x160 ./build/sdklib/libnet80211.a(ieee80211_power.o)
                                        0x17c (size before relaxing)
                0x0000000040255268                sdk_ieee80211_psq_init
                0x0000000040255280                sdk_ieee80211_psq_cleanup
                0x0000000040255288                sdk_ieee80211_set_tim
                0x00000000402552c8                sdk_ieee80211_pwrsave
                0x0000000040255394                sdk_ieee80211_node_pwrsave
 .irom0.text    0x00000000402553c8      0x15b ./build/sdklib/libnet80211.a(ieee80211_proto.o)
                                        0x177 (size before relaxing)
                0x00000000402553cc                sdk_ieee80211_proto_attach
                0x00000000402553f4                sdk_ieee80211_set_shortslottime
                0x0000000040255410                sdk_ieee80211_iserp_rateset
                0x00000000402554a4                sdk_ieee80211_setbasicrates
                0x00000000402554b8                sdk_ieee80211_addbasicrates
                0x00000000402554cc                sdk_ieee80211_wme_initparams
                0x00000000402554d0                sdk_ieee80211_wme_updateparams
                0x00000000402554d4                sdk_ieee80211_mlme_connect_bss
 *fill*         0x0000000040255523        0x1 
 .irom0.text    0x0000000040255524      0xcf9 ./build/sdklib/libnet80211.a(ieee80211_scan.o)
                                       0x1029 (size before relaxing)
                0x0000000040255534                sdk_ieee80211_scan_attach
                0x00000000402555b0                sdk_scan_start
                0x000000004025568c                sdk_scan_pm_channel_op_cb
                0x0000000040255824                sdk_scan_cancel
                0x0000000040255930                sdk_scan_add_bssid
                0x0000000040255954                sdk_scan_remove_bssid
                0x0000000040255960                sdk_scan_hidden_ssid
                0x0000000040255968                sdk_scan_add_probe_ssid
                0x00000000402559a8                sdk_scan_remove_probe_ssid
                0x0000000040255adc                sdk_scan_clear_channles
                0x0000000040255b4c                sdk_scan_set_desChan
                0x0000000040255b58                sdk_scan_get_type
                0x0000000040255b60                sdk_cannel_scan_connect_state
                0x0000000040255b78                sdk_scan_connect_state
                0x0000000040255bc0                sdk_scan_check_hidden
                0x0000000040255bec                sdk_scan_profile_check
                0x0000000040255f50                sdk_scan_parse_beacon
 *fill*         0x000000004025621d        0x3 
 .irom0.text    0x0000000040256220      0xb49 ./build/sdklib/libnet80211.a(ieee80211_sta.o)
                                        0xd0d (size before relaxing)
                0x0000000040256248                sdk_sta_status_set
                0x0000000040256280                sdk_ieee80211_sta_new_state
                0x000000004025644c                sdk_sta_input
                0x00000000402567c0                sdk_ieee80211_parse_wmeparams
                0x0000000040256ca0                sdk_wifi_station_start
                0x0000000040256d24                sdk_wifi_station_stop
 *fill*         0x0000000040256d69        0x3 
 .irom0.text    0x0000000040256d6c      0x32e ./build/sdklib/libnet80211.a(wl_chm.o)
                                        0x3da (size before relaxing)
                0x0000000040256d78                sdk_chm_init
                0x0000000040256e24                sdk_chm_acquire_lock
                0x0000000040256e68                sdk_chm_release_lock
                0x0000000040256e7c                sdk_chm_start_op
                0x0000000040256f1c                sdk_chm_end_op
                0x0000000040256f64                sdk_chm_cancel_op
                0x0000000040256f98                sdk_chm_return_home_channel
                0x0000000040256fcc                sdk_chm_set_current_channel
                0x0000000040257044                sdk_chm_freq2index
                0x000000004025706c                sdk_chm_check_same_channel
 *fill*         0x000000004025709a        0x2 
 .irom0.text    0x000000004025709c     0x131d ./build/sdklib/libnet80211.a(wl_cnx.o)
                                       0x173d (size before relaxing)
                0x00000000402570a8                sdk_cnx_attach
                0x00000000402570e8                sdk_cnx_sta_connect_led_timer_cb
                0x000000004025713c                sdk_cnx_sta_connect_cmd
                0x00000000402571ec                sdk_cnx_sta_scan_cmd
                0x000000004025743c                sdk_cnx_connect_timeout
                0x00000000402574a4                sdk_cnx_start_handoff_cb
                0x00000000402578b4                sdk_cnx_bss_alloc
                0x0000000040257964                sdk_cnx_rc_search
                0x0000000040257a2c                sdk_cnx_add_rc
                0x0000000040257b18                sdk_cnx_remove_rc
                0x0000000040257bec                sdk_cnx_rc_update_rssi
                0x0000000040257c70                sdk_cnx_rc_update_state_metric
                0x0000000040257cdc                sdk_cnx_rc_update_age
                0x0000000040257d00                sdk_cnx_update_bss
                0x0000000040257d38                sdk_cnx_update_bss_more
                0x0000000040257ec4                sdk_cnx_sta_leave
                0x0000000040257fe4                sdk_cnx_sta_associated
                0x0000000040258040                sdk_cnx_node_alloc
                0x00000000402580a0                sdk_cnx_node_remove
                0x0000000040258114                sdk_cnx_node_search
                0x0000000040258174                sdk_cnx_node_leave
                0x0000000040258230                sdk_cnx_node_join
 *fill*         0x00000000402583b9        0x3 
 .irom0.text    0x00000000402583bc      0x161 ./build/sdklib/libnet80211.a(ieee80211_action.o)
                                        0x181 (size before relaxing)
                0x00000000402583cc                sdk_ieee80211_send_action_register
                0x0000000040258400                sdk_ieee80211_send_action_unregister
                0x0000000040258414                sdk_ieee80211_send_action
                0x0000000040258478                sdk_ieee80211_recv_action_register
                0x00000000402584ac                sdk_ieee80211_recv_action_unregister
                0x00000000402584c0                sdk_ieee80211_recv_action
 *fill*         0x000000004025851d        0x3 
 .irom0.text    0x0000000040258520       0x45 ./build/sdklib/libnet80211.a(ieee80211_ets.o)
                                         0x49 (size before relaxing)
                0x0000000040258520                sdk_ieee80211_getmgtframe
 *fill*         0x0000000040258565        0x3 
 .irom0.text    0x0000000040258568       0xfa ./build/sdklib/libphy.a(phy.o)
                                        0x11e (size before relaxing)
                0x000000004025856c                sdk_rf_init
                0x0000000040258588                sdk_bb_init
                0x00000000402585a0                sdk_phy_init
                0x00000000402585d0                sdk_RFChannelSel
                0x00000000402585ec                sdk_phy_delete_channel
                0x0000000040258604                sdk_phy_enable_agc
                0x000000004025861c                sdk_phy_disable_agc
                0x0000000040258634                sdk_phy_initialize_bb
                0x000000004025864c                sdk_phy_set_sense
 *fill*         0x0000000040258662        0x2 
 .irom0.text    0x0000000040258664     0x1466 ./build/sdklib/libphy.a(phy_chip_v6_ana.o)
                                       0x168e (size before relaxing)
                0x0000000040258668                sdk_ram_pbus_set_rxgain
                0x000000004025873c                sdk_ram_pbus_debugmode
                0x00000000402587f0                sdk_ram_pbus_xpd_tx_on
                0x000000004025885c                sdk_set_rf_freq_offset
                0x00000000402588cc                sdk_chip_v6_rxmax_ext_ana
                0x0000000040258a1c                sdk_ram_chip_v6_rx_init
                0x0000000040258a4c                sdk_tsen_meas
                0x0000000040258af8                sdk_readvdd33
                0x0000000040258c88                sdk_txpwr_offset
                0x0000000040258d30                sdk_set_txcap_reg
                0x0000000040258db0                sdk_ram_restart_cal
                0x0000000040258e1c                sdk_wait_rfpll_cal_end
                0x0000000040258e90                sdk_ram_rfpll_set_freq
                0x0000000040258f68                sdk_ram_set_channel_freq
                0x0000000040259270                sdk_chip_60_set_channel
                0x000000004025935c                sdk_chip_v6_set_chan_offset
                0x00000000402593c8                sdk_chip_v6_set_chan
                0x0000000040259440                sdk_chip_v6_set_chan_wakeup
                0x00000000402594c0                sdk_chip_v6_rf_init
                0x00000000402596cc                sdk_low_power_set
                0x000000004025972c                sdk_test_tout
                0x0000000040259958                sdk_check_data_flag
                0x0000000040259978                sdk_get_check_flag
 *fill*         0x0000000040259aca        0x2 
 .irom0.text    0x0000000040259acc     0x33a1 ./build/sdklib/libphy.a(phy_chip_v6.o)
                                       0x3a51 (size before relaxing)
                0x0000000040259acc                sdk_ram_tx_mac_enable
                0x0000000040259ad0                sdk_rtc_mem_backup
                0x0000000040259b00                sdk_rtc_mem_recovery
                0x0000000040259b30                sdk_set_cal_rxdc
                0x0000000040259be8                sdk_set_rx_gain_cal_iq
                0x0000000040259f44                sdk_gen_rx_gain_table
                0x000000004025a084                sdk_pbus_set_rxbbgain
                0x000000004025a104                sdk_set_rx_gain_testchip_50
                0x000000004025a41c                sdk_ram_get_corr_power
                0x000000004025a50c                sdk_check_data_func
                0x000000004025a52c                sdk_do_noisefloor_lsleep_v50
                0x000000004025a560                sdk_do_noisefloor
                0x000000004025a5d0                sdk_start_dig_rx
                0x000000004025a614                sdk_stop_dig_rx
                0x000000004025a640                sdk_chip_v6_set_chanfreq
                0x000000004025a66c                sdk_tx_cap_init
                0x000000004025a828                sdk_target_power_add_backoff
                0x000000004025a878                sdk_tx_pwctrl_init_cal
                0x000000004025a9e0                sdk_tx_atten_set_interp
                0x000000004025ac54                sdk_tx_pwctrl_init
                0x000000004025ad50                sdk_ram_get_noisefloor
                0x000000004025ad6c                sdk_get_noisefloor_sat
                0x000000004025ad9c                sdk_ram_set_noise_floor
                0x000000004025adf8                sdk_ram_start_noisefloor
                0x000000004025ae44                sdk_read_hw_noisefloor
                0x000000004025ae70                sdk_noise_check_loop
                0x000000004025afd8                sdk_noise_init
                0x000000004025b1d8                sdk_target_power_backoff
                0x000000004025b22c                sdk_sdt_on_noise_start
                0x000000004025b2b0                sdk_chip_v6_set_chan_rx_cmp
                0x000000004025b438                sdk_chip_v6_set_chan_misc
                0x000000004025b4b4                sdk_phy_dig_spur_set
                0x000000004025b7b0                sdk_phy_dig_spur_prot
                0x000000004025b9e8                sdk_chip_v6_rxmax_ext_dig
                0x000000004025ba34                sdk_chip_v6_rxmax_ext
                0x000000004025badc                sdk_phy_bb_rx_cfg
                0x000000004025be94                sdk_uart_wait_idle
                0x000000004025bec8                sdk_phy_pbus_soc_cfg
                0x000000004025bf88                sdk_phy_gpio_cfg
                0x000000004025c2bc                sdk_tx_cont_en
                0x000000004025c364                sdk_tx_cont_dis
                0x000000004025c3b8                sdk_tx_cont_cfg
                0x000000004025c3d8                sdk_chip_v6_initialize_bb
                0x000000004025c578                sdk_periodic_cal
                0x000000004025c684                sdk_bbpll_cal
                0x000000004025c710                sdk_periodic_cal_top
                0x000000004025c770                sdk_register_chipv6_phy_init_param
                0x000000004025c9f4                sdk_change_bbpll160_sleep
                0x000000004025cae4                sdk_change_bbpll160
                0x000000004025cb14                sdk_set_crystal_uart
                0x000000004025cb84                sdk_ant_switch_init
                0x000000004025cc68                sdk_register_chipv6_phy
 *fill*         0x000000004025ce6d        0x3 
 .irom0.text    0x000000004025ce70     0x2537 ./build/sdklib/libphy.a(phy_chip_v6_cal.o)
                                       0x27e3 (size before relaxing)
                0x000000004025ce70                sdk_txbbgain2dcoindex
                0x000000004025ce90                sdk_dcoindex2txbbgain
                0x000000004025ceb0                sdk_init_cal_dcoffset
                0x000000004025cf74                sdk_set_rfanagain_dc_reg
                0x000000004025d010                sdk_set_txdc_pbus
                0x000000004025d07c                sdk_get_rf_gain_qdb
                0x000000004025d0a4                sdk_correct_rf_ana_gain
                0x000000004025d1ac                sdk_get_sar_dout
                0x000000004025d244                sdk_cal_rf_ana_gain
                0x000000004025d31c                sdk_meas_tone_pwr_db
                0x000000004025d38c                sdk_tx_pwr_backoff
                0x000000004025d4d8                sdk_get_fcc_1m2m_pwr_offset
                0x000000004025d514                sdk_ram_set_txbb_atten
                0x000000004025d5a8                sdk_txiq_get_mis_pwr
                0x000000004025d64c                sdk_txiq_cover
                0x000000004025d864                sdk_ram_rfcal_txiq
                0x000000004025dad0                sdk_rc_cal
                0x000000004025dc8c                sdk_get_target_power_offset
                0x000000004025dd80                sdk_get_pwctrl_correct
                0x000000004025ddd8                sdk_tx_pwctrl_cal
                0x000000004025e118                sdk_tx_pwctrl_bg_init
                0x000000004025e188                sdk_tx_pwctrl_background
                0x000000004025e2b4                sdk_read_sar_dout
                0x000000004025e318                sdk_ram_get_fm_sar_dout
                0x000000004025e3bc                sdk_ram_cal_tos_v60
                0x000000004025e59c                sdk_ram_get_bb_atten
                0x000000004025e5cc                sdk_ram_rfcal_txcap
                0x000000004025e790                sdk_ram_rfcal_pwrctrl
                0x000000004025e9ac                sdk_ram_rxiq_get_mis
                0x000000004025eb78                sdk_ram_rxiq_cover_mg_mp
                0x000000004025ed1c                sdk_ram_rfcal_rxiq
                0x000000004025ef28                sdk_dpd_scale_set
                0x000000004025ef70                sdk_dpd_mem_write
                0x000000004025eff8                sdk_dpd_init
 *fill*         0x000000004025f3a7        0x1 
 .irom0.text    0x000000004025f3a8      0x269 ./build/sdklib/libphy.a(phy_chip_v6_unused.o)
                                        0x2fd (size before relaxing)
                0x000000004025f3a8                sdk_chip_v6_set_sense
                0x000000004025f3ac                sdk_chip_v6_get_sense
                0x000000004025f3b0                sdk_chip_v6_unset_chanfreq
                0x000000004025f3bc                sdk_data_collect
                0x000000004025f490                sdk_operation_test
                0x000000004025f508                sdk_slop_wdt_feed
                0x000000004025f51c                sdk_slop_test
                0x000000004025f5c8                sdk_wd_reset_cnt
 *fill*         0x000000004025f611        0x3 
 .irom0.text    0x000000004025f614      0xbca ./build/sdklib/libphy.a(phy_sleep.o)
                                        0xe02 (size before relaxing)
                0x000000004025f614                sdk_pm_usec2rtc
                0x000000004025f648                sdk_pm_rtc2usec
                0x000000004025f654                sdk_pm_set_sleep_cycles
                0x000000004025f67c                sdk_pm_sleep_opt
                0x000000004025f76c                sdk_pm_wakeup_opt
                0x000000004025f7a4                sdk_get_chip_version
                0x000000004025f7e4                sdk_pm_sleep_opt_bb_off
                0x000000004025f824                sdk_pm_sleep_opt_bb_on
                0x000000004025f870                sdk_pm_set_pll_xtal_wait_time
                0x000000004025f8b8                sdk_pm_prepare_to_sleep
                0x000000004025f8dc                sdk_pm_sdio_nidle
                0x000000004025f958                sdk_pm_goto_sleep
                0x000000004025f9d4                sdk_pm_wait4wakeup
                0x000000004025fa0c                sdk_pm_open_rf
                0x000000004025fa4c                sdk_pm_sleep_set_mac
                0x000000004025fad0                sdk_pm_set_wakeup_mac
                0x000000004025fb6c                sdk_pm_check_mac_idle
                0x000000004025fbc4                sdk_pm_set_sleep_btco
                0x000000004025fc5c                sdk_pm_set_wakeup_btco
                0x000000004025fd64                sdk_pm_set_sleep_mode
                0x000000004025fe34                sdk_pm_unmask_bt
                0x000000004025fe94                sdk_pm_wakeup_init
                0x0000000040260084                sdk_sleep_opt_8266
                0x00000000402600a4                sdk_sleep_opt_bb_on_8266
                0x00000000402600dc                sdk_sleep_reset_analog_rtcreg_8266
 *fill*         0x00000000402601de        0x2 
 .irom0.text    0x00000000402601e0      0x9b4 ./build/sdklib/libphy.a(phy_chip_v5_romfunc.o)
                                        0xab4 (size before relaxing)
                0x00000000402601e0                sdk_rom_abs_temp
                0x00000000402601ec                sdk_rom_chip_v5_disable_cca
                0x0000000040260208                sdk_rom_chip_v5_enable_cca
                0x0000000040260228                sdk_rom_chip_v5_sense_backoff
                0x0000000040260274                sdk_rom_dc_iq_est
                0x00000000402602d0                sdk_rom_en_pwdet
                0x0000000040260340                sdk_rom_get_bb_atten
                0x0000000040260368                sdk_rom_get_corr_power
                0x00000000402603e4                sdk_rom_get_fm_sar_dout
                0x0000000040260480                sdk_rom_get_noisefloor
                0x000000004026049c                sdk_rom_get_power_db
                0x00000000402604ec                sdk_rom_iq_est_disable
                0x000000004026051c                sdk_rom_iq_est_enable
                0x0000000040260570                sdk_rom_linear_to_db
                0x00000000402605e8                sdk_rom_set_txclk_en
                0x000000004026062c                sdk_rom_set_rxclk_en
                0x0000000040260670                sdk_rom_mhz2ieee
                0x00000000402606d4                sdk_rom_rxiq_get_mis
                0x00000000402607fc                sdk_rom_sar_init
                0x0000000040260850                sdk_rom_set_ana_inf_tx_scale
                0x000000004026088c                sdk_rom_set_loopback_gain
                0x00000000402608f0                sdk_rom_set_noise_floor
                0x000000004026092c                sdk_rom_start_noisefloor
                0x0000000040260968                sdk_rom_start_tx_tone
                0x0000000040260a30                sdk_rom_stop_tx_tone
                0x0000000040260abc                sdk_rom_txtone_linear_pwr
                0x0000000040260b24                sdk_rom_tx_mac_disable
                0x0000000040260b60                sdk_rom_tx_mac_enable
 .irom0.text    0x0000000040260b94      0xf2f ./build/sdklib/libphy.a(phy_chip_v5_ana_romfunc.o)
                                       0x112b (size before relaxing)
                0x0000000040260b94                sdk_rom_ana_inf_gating_en
                0x0000000040260d00                sdk_rom_set_channel_freq
                0x0000000040261014                sdk_rom_chip_50_set_channel
                0x0000000040261200                sdk_rom_chip_v5_rx_init
                0x000000004026126c                sdk_rom_chip_v5_tx_init
                0x0000000040261340                sdk_rom_i2c_readReg
                0x0000000040261374                sdk_rom_i2c_readReg_Mask
                0x00000000402613b0                sdk_rom_i2c_writeReg
                0x00000000402613e4                sdk_rom_i2c_writeReg_Mask
                0x0000000040261454                sdk_rom_pbus_debugmode
                0x00000000402614e4                sdk_rom_pbus_enter_debugmode
                0x0000000040261518                sdk_rom_pbus_exit_debugmode
                0x000000004026154c                sdk_rom_pbus_force_test
                0x00000000402615a8                sdk_rom_pbus_rd
                0x0000000040261614                sdk_rom_pbus_set_rxgain
                0x00000000402616d8                sdk_rom_pbus_set_txgain
                0x000000004026170c                sdk_rom_pbus_workmode
                0x000000004026174c                sdk_rom_pbus_xpd_rx_off
                0x0000000040261794                sdk_rom_pbus_xpd_rx_on
                0x00000000402617c4                sdk_rom_pbus_xpd_tx_off
                0x0000000040261804                sdk_rom_pbus_xpd_tx_on
                0x0000000040261864                sdk_rom_pbus_xpd_tx_on__low_gain
                0x00000000402618c8                sdk_rom_phy_reset_req
                0x00000000402618e0                sdk_rom_restart_cal
                0x000000004026192c                sdk_rom_rfpll_reset
                0x000000004026199c                sdk_rom_write_rfpll_sdm
                0x0000000040261a1c                sdk_rom_rfpll_set_freq
 *fill*         0x0000000040261ac3        0x1 
 .irom0.text    0x0000000040261ac4     0x1136 ./build/sdklib/libphy.a(phy_chip_v5_cal_romfunc.o)
                                       0x124a (size before relaxing)
                0x0000000040261ac4                sdk_rom_cal_tos_v50
                0x0000000040261c70                sdk_rom_pbus_dco___SA2
                0x0000000040261f28                sdk_rom_rfcal_pwrctrl
                0x00000000402620b0                sdk_rom_rfcal_rxiq
                0x00000000402622bc                sdk_rom_rfcal_rxiq_set_reg
                0x00000000402623c0                sdk_rom_rfcal_txcap
                0x0000000040262620                sdk_rom_rfcal_txiq
                0x000000004026286c                sdk_rom_rfcal_txiq_cover
                0x0000000040262870                sdk_rom_rfcal_txiq_set_reg
                0x000000004026294c                sdk_rom_rxiq_cover_mg_mp
                0x0000000040262a98                sdk_rom_set_txbb_atten
                0x0000000040262b68                sdk_rom_set_txiq_cal
 *fill*         0x0000000040262bfa        0x2 
 .irom0.text    0x0000000040262bfc      0x5a3 ./build/sdklib/libpp.a(esf_buf.o)
                                        0x6bf (size before relaxing)
                0x0000000040262c00                sdk_esf_buf_alloc
                0x0000000040262e34                sdk_esf_buf_recycle
                0x0000000040263094                sdk_esf_buf_setup
 *fill*         0x000000004026319f        0x1 
 .irom0.text    0x00000000402631a0      0x3a6 ./build/sdklib/libpp.a(if_hwctrl.o)
                                        0x466 (size before relaxing)
                0x00000000402631a4                sdk_ic_get_addr
                0x00000000402631b0                sdk_ic_set_opmode
                0x00000000402631c4                sdk_ic_enable_interface
                0x0000000040263214                sdk_ic_interface_enabled
                0x0000000040263228                sdk_ic_disable_interface
                0x0000000040263270                sdk_ic_is_pure_sta
                0x000000004026328c                sdk_ic_get_ptk_alg
                0x000000004026329c                sdk_ic_get_gtk_alg
                0x00000000402632ac                sdk_ic_set_ptk_alg
                0x00000000402632bc                sdk_ic_set_gtk_alg
                0x00000000402632cc                sdk_ic_interface_is_p2p
                0x000000004026334c                sdk_ic_set_vif
                0x00000000402633bc                sdk_ic_set_sta
                0x000000004026347c                sdk_ic_bss_info_update
                0x00000000402634d8                sdk_ic_set_key
                0x0000000040263534                sdk_ic_remove_key
 *fill*         0x0000000040263546        0x2 
 .irom0.text    0x0000000040263548       0xde ./build/sdklib/libpp.a(lmac.o)
                                         0xf2 (size before relaxing)
                0x000000004026354c                sdk_lmacInitAc
                0x0000000040263580                sdk_lmacInit
 *fill*         0x0000000040263626        0x2 
 .irom0.text    0x0000000040263628     0x1721 ./build/sdklib/libpp.a(pm.o)
                                       0x1c39 (size before relaxing)
                0x0000000040263684                sdk_pm_rtc_clock_cali_proc
                0x00000000402636bc                sdk_pm_set_sleep_time
                0x0000000040263800                sdk_pm_rf_is_closed
                0x0000000040263830                sdk_pm_set_sleep_type_from_upper
                0x00000000402638a8                sdk_pm_get_sleep_type
                0x00000000402639d0                sdk_uart_tx_flush
                0x00000000402639d4                sdk_pm_suspend
                0x0000000040263cf0                sdk_pm_shutdown
                0x0000000040263dd4                sdk_pm_reset_idle_sleep
                0x0000000040263e0c                sdk_pm_idle_sleep
                0x0000000040263e18                sdk_pm_open
                0x0000000040263f08                sdk_pm_onBcnRx
                0x0000000040264624                sdk_pm_enable_gpio_wakeup
                0x0000000040264668                sdk_pm_attach
                0x0000000040264778                sdk_pm_send_nullfunc
                0x0000000040264948                sdk_pm_is_waked
                0x0000000040264960                sdk_pm_is_open
                0x0000000040264978                sdk_pm_scan_lock
                0x00000000402649a8                sdk_pm_try_scan_unlock
                0x00000000402649c0                sdk_pm_force_scan_unlock
                0x0000000040264a7c                sdk_pm_scan_unlocked
                0x0000000040264a90                sdk_pm_allow_tx
                0x0000000040264ab0                sdk_pm_assoc_parse
                0x0000000040264ac8                sdk_pm_set_addr
                0x0000000040264ae8                sdk_pm_sleep_for
                0x0000000040264b24                sdk_pm_post
                0x0000000040264d08                sdk_pm_get_idle_wait_time
 *fill*         0x0000000040264d49        0x3 
 .irom0.text    0x0000000040264d4c     0x1249 ./build/sdklib/libpp.a(pp.o)
                                       0x152d (size before relaxing)
                0x0000000040264d50                sdk_PPWdtReset
                0x0000000040264d78                sdk_pp_soft_wdt_init
                0x0000000040264d98                sdk_RxNodeNum
                0x0000000040264dbc                sdk_TxNodeNum
                0x0000000040264e08                sdk_pp_disable_noise_timer
                0x0000000040264e24                sdk_pp_enable_noise_timer
                0x0000000040264eec                sdk_pp_noise_test
                0x0000000040264efc                sdk_reset_noise_timer
                0x0000000040264f30                sdk_pp_disable_idle_timer
                0x0000000040264f54                sdk_pp_enable_idle_timer
                0x0000000040264f7c                sdk_pp_try_enable_idle_timer
                0x0000000040264fac                sdk_ppPeocessRxPktHdr
                0x0000000040265010                sdk_ppTask
                0x00000000402653b8                sdk_ppTxPkt
                0x0000000040265594                sdk_ppProcessWaitQ
                0x00000000402655a8                sdk_ppRegisterTxCallback
                0x00000000402655e4                sdk_ppRecycleRxPkt
                0x0000000040265644                sdk_ppCheckTxIdle
                0x0000000040265b90                sdk_ppGetTxQFirstAvail_Locked
                0x0000000040265d44                sdk_pp_attach
 *fill*         0x0000000040265f95        0x3 
 .irom0.text    0x0000000040265f98      0x296 ./build/sdklib/libpp.a(rate_control.o)
                                        0x2a2 (size before relaxing)
                0x00000000402661e4                sdk_RC_SetBasicRate
 *fill*         0x000000004026622e        0x2 
 .irom0.text    0x0000000040266230      0x40d ./build/sdklib/libpp.a(trc.o)
                                        0x46d (size before relaxing)
                0x000000004026625c                sdk_rcUpdatePhyMode
                0x0000000040266338                sdk_rcAttach
                0x0000000040266384                sdk_rcGetTrc
                0x000000004026638c                sdk_trc_onDisconnect
                0x0000000040266390                sdk_trc_onScanStart
                0x00000000402663b0                sdk_trc_onScanDone
                0x00000000402663d0                sdk_rc_enable_trc
                0x0000000040266498                sdk_rc_get_mask
                0x00000000402664ac                sdk_rc_disable_trc
                0x0000000040266524                sdk_rc_disable_trc_by_interface
                0x0000000040266540                sdk_rc_get_sta_trc
                0x0000000040266580                sdk_rc_get_trc
                0x00000000402665f0                sdk_rc_get_trc_by_index
                0x0000000040266610                sdk_rc_only_sta_trc
 *fill*         0x000000004026663d        0x3 
 .irom0.text    0x0000000040266640      0xa47 ./build/sdklib/libpp.a(wdev.o)
                                        0xb7f (size before relaxing)
                0x000000004026664c                sdk_wDev_Option_Init
                0x000000004026671c                sdk_wDev_Enable_Beacon_Tsf
                0x0000000040266738                sdk_wDev_Disable_Beacon_Tsf
                0x0000000040266754                sdk_wDev_Set_Beacon_Int
                0x000000004026675c                sdk_wDev_Reset_TBTT
                0x000000004026678c                sdk_wDev_Get_Next_TBTT
                0x0000000040266a24                sdk_wDev_MacTim1SetFunc
                0x0000000040266a44                sdk_wDev_Initialize
                0x0000000040266aac                sdk_wDevForceAck6M
                0x0000000040266ac8                sdk_wDev_SetMacAddress
                0x0000000040266b64                sdk_wDev_SetRxPolicy
                0x0000000040266bb8                sdk_wDev_SetBssid
                0x0000000040266c90                sdk_wDev_ClearBssid
                0x0000000040266cc8                sdk_wDev_Insert_KeyEntry
                0x0000000040266d9c                sdk_wDev_remove_KeyEntry
                0x0000000040266ddc                sdk_wDev_Crypto_Conf
                0x0000000040266e78                sdk_wDev_Crypto_Disable
                0x0000000040266eb0                sdk_wDevDisableRx
                0x0000000040266ec8                sdk_wDevEnableRx
                0x0000000040266eec                sdk_wdev_go_sniffer
                0x0000000040266fc4                sdk_wdev_exit_sniffer
 *fill*         0x0000000040267087        0x1 
 .irom0.text    0x0000000040267088      0x282 ./build/sdklib/libwpa.a(ap_config.o)
                                        0x2ba (size before relaxing)
                0x000000004026708c                sdk_hostapd_config_defaults_bss
                0x00000000402670d4                sdk_hostapd_config_defaults
                0x0000000040267140                sdk_hostapd_mac_comp
                0x0000000040267158                sdk_hostapd_mac_comp_empty
                0x00000000402671b0                sdk_hostapd_setup_wpa_psk
                0x00000000402671e0                sdk_hostapd_wep_key_cmp
                0x0000000040267230                sdk_hostapd_maclist_found
                0x000000004026729c                sdk_hostapd_rate_found
                0x00000000402672b8                sdk_hostapd_get_psk
 *fill*         0x000000004026730a        0x2 
 .irom0.text    0x000000004026730c      0x248 ./build/sdklib/libwpa.a(common.o)
                                        0x28c (size before relaxing)
                0x000000004026730c                sdk_inc_byte_array
                0x0000000040267360                sdk_hex2byte
                0x0000000040267394                sdk_hexstr2bin
                0x00000000402673e0                sdk_wpa_get_ntp_timestamp
                0x0000000040267474                sdk_wpa_config_parse_string
 .irom0.text    0x0000000040267554       0x5b ./build/sdklib/libwpa.a(os_xtensa.o)
                                         0x63 (size before relaxing)
                0x0000000040267554                sdk_os_get_time
                0x000000004026755c                os_random
                0x0000000040267570                os_get_random
 *fill*         0x00000000402675af        0x1 
 .irom0.text    0x00000000402675b0      0x149 ./build/sdklib/libwpa.a(sha1-pbkdf2.o)
                                        0x165 (size before relaxing)
                0x0000000040267694                sdk_pbkdf2_sha1
 *fill*         0x00000000402676f9        0x3 
 .irom0.text    0x00000000402676fc     0x1ca7 ./build/sdklib/libwpa.a(wpa_auth.o)
                                       0x1f47 (size before relaxing)
                0x000000004026783c                sdk_wpa_auth_for_each_sta
                0x00000000402679a0                sdk_wpa_init
                0x0000000040267a14                sdk_wpa_auth_sta_init
                0x0000000040267a54                sdk_wpa_auth_sta_associated
                0x0000000040267ad0                sdk_wpa_auth_sta_no_wpa
                0x0000000040267b1c                sdk_wpa_auth_sta_deinit
                0x0000000040267bf8                sdk_wpa_receive
                0x0000000040268064                sdk___wpa_send_eapol
                0x0000000040268548                sdk_wpa_remove_ptk
                0x0000000040268594                sdk_wpa_auth_sm_event
 *fill*         0x00000000402693a3        0x1 
 .irom0.text    0x00000000402693a4      0x569 ./build/sdklib/libwpa.a(wpa_auth_ie.o)
                                        0x5d5 (size before relaxing)
                0x0000000040269468                sdk_wpa_write_rsn_ie
                0x0000000040269570                sdk_wpa_auth_gen_wpa_ie
                0x00000000402695f4                sdk_wpa_add_kde
                0x0000000040269660                sdk_wpa_validate_wpa_ie
                0x0000000040269860                sdk_wpa_parse_kde_ies
                0x00000000402698fc                sdk_wpa_auth_uses_mfp
 *fill*         0x000000004026990d        0x3 
 .irom0.text    0x0000000040269910     0x140c ./build/sdklib/libwpa.a(wpa.o)
                                       0x1660 (size before relaxing)
                0x000000004026a860                sdk_wpa_sm_rx_eapol
                0x000000004026a9c4                sdk_wpa_register
                0x000000004026a9f0                sdk_wpa_set_profile
                0x000000004026aa00                sdk_wpa_set_pmk
                0x000000004026aa2c                sdk_wpa_set_bss
                0x000000004026ac10                sdk_pp_michael_mic_failure
                0x000000004026aca4                sdk_eapol_txcb
                0x000000004026acf4                sdk_wpa_sm_set_state
 .irom0.text    0x000000004026ad1c      0x732 ./build/sdklib/libwpa.a(wpa_common.o)
                                        0x7ca (size before relaxing)
                0x000000004026ae64                sdk_wpa_parse_wpa_ie_rsn
                0x000000004026aff8                sdk_wpa_parse_wpa_ie_wpa
                0x000000004026b17c                sdk_wpa_eapol_key_mic
                0x000000004026b1bc                sdk_wpa_compare_rsn_ie
                0x000000004026b1e4                sdk_wpa_pmk_to_ptk
                0x000000004026b2d0                sdk_rsn_pmkid
                0x000000004026b304                sdk_wpa_cipher_key_len
                0x000000004026b328                sdk_wpa_cipher_to_alg
                0x000000004026b350                sdk_wpa_cipher_to_suite
                0x000000004026b3a4                sdk_rsn_cipher_put_suites
                0x000000004026b404                sdk_wpa_cipher_put_suites
 *fill*         0x000000004026b44e        0x2 
 .irom0.text    0x000000004026b450      0x325 ./build/sdklib/libwpa.a(wpa_ie.o)
                                        0x341 (size before relaxing)
                0x000000004026b450                sdk_wpa_parse_wpa_ie
                0x000000004026b544                sdk_wpa_supplicant_parse_ies
                0x000000004026b744                sdk_wpa_gen_wpa_ie
 *fill*         0x000000004026b775        0x3 
 .irom0.text    0x000000004026b778      0x2d3 ./build/sdklib/libwpa.a(wpa_main.o)
                                        0x387 (size before relaxing)
                0x000000004026b778                sdk_ppInstallKey
                0x000000004026b880                sdk_wpa_config_profile
                0x000000004026b8b8                sdk_wpa_config_bss
                0x000000004026b8f8                sdk_wpa_config_assoc_ie
                0x000000004026b90c                sdk_dhcp_bind_check
                0x000000004026b938                sdk_eagle_auth_done
                0x000000004026b9ec                sdk_wpa_neg_complete
                0x000000004026ba14                sdk_wpa_attach
 *fill*         0x000000004026ba4b        0x1 
 .irom0.text    0x000000004026ba4c       0xd6 ./build/sdklib/libwpa.a(wpas_glue.o)
                                         0xe2 (size before relaxing)
                0x000000004026bac0                sdk_wpa_sm_alloc_eapol
                0x000000004026bafc                sdk_wpa_sm_deauthenticate
                0x000000004026bb18                sdk_wpa_sm_mlme_setprotection
                0x000000004026bb1c                sdk_wpa_sm_get_beacon_ie
                0x000000004026bb20                sdk_wpa_sm_disassociate
 *fill*         0x000000004026bb22        0x2 
 .irom0.text    0x000000004026bb24       0xf0 ./build/sdklib/libwpa.a(aes-unwrap.o)
                                        0x114 (size before relaxing)
                0x000000004026bb24                sdk_aes_unwrap
 .irom0.text    0x000000004026bc14       0xdf ./build/sdklib/libwpa.a(aes-wrap.o)
                                        0x103 (size before relaxing)
                0x000000004026bc14                sdk_aes_wrap
 *fill*         0x000000004026bcf3        0x1 
 .irom0.text    0x000000004026bcf4      0x14f ./build/sdklib/libwpa.a(md5.o)
                                        0x16b (size before relaxing)
                0x000000004026bcf4                sdk_hmac_md5_vector
                0x000000004026be24                sdk_hmac_md5
 *fill*         0x000000004026be43        0x1 
 .irom0.text    0x000000004026be44      0x9b4 ./build/sdklib/libwpa.a(md5-internal.o)
                                        0x9dc (size before relaxing)
                0x000000004026be44                sdk_md5_vector
                0x000000004026bea8                sdk_MD5Init
                0x000000004026bec4                sdk_MD5Update
                0x000000004026bf84                sdk_MD5Final
 .irom0.text    0x000000004026c7f8      0x216 ./build/sdklib/libwpa.a(sha1.o)
                                        0x23a (size before relaxing)
                0x000000004026c7f8                sdk_hmac_sha1_vector
                0x000000004026c92c                sdk_hmac_sha1
                0x000000004026c94c                sdk_sha1_prf
 *fill*         0x000000004026ca0e        0x2 
 .irom0.text    0x000000004026ca10     0x14fb ./build/sdklib/libwpa.a(sha1-internal.o)
                                       0x157b (size before relaxing)
                0x000000004026ca10                sdk_sha1_vector
                0x000000004026ca80                sdk_SHA1Transform
                0x000000004026dd6c                sdk_SHA1Init
                0x000000004026dd90                sdk_SHA1Update
                0x000000004026de2c                sdk_SHA1Final
 *fill*         0x000000004026df0b        0x1 
 .irom0.text    0x000000004026df0c      0x557 ./build/sdklib/libwpa.a(aes-internal-dec.o)
                                        0x573 (size before relaxing)
                0x000000004026df14                sdk_rijndaelKeySetupDec
                0x000000004026dfe8                sdk_aes_decrypt_init
                0x000000004026e43c                sdk_aes_decrypt
                0x000000004026e44c                sdk_aes_decrypt_deinit
 *fill*         0x000000004026e463        0x1 
 .irom0.text    0x000000004026e464      0x47d ./build/sdklib/libwpa.a(aes-internal-enc.o)
                                        0x49d (size before relaxing)
                0x000000004026e464                sdk_rijndaelEncrypt
                0x000000004026e87c                sdk_aes_encrypt_init
                0x000000004026e8ac                sdk_aes_encrypt
                0x000000004026e8bc                sdk_aes_encrypt_deinit
 *fill*         0x000000004026e8e1        0x3 
 .irom0.text    0x000000004026e8e4      0x10a ./build/sdklib/libwpa.a(aes-internal.o)
                                        0x11a (size before relaxing)
                0x000000004026e8e8                sdk_rijndaelKeySetupEnc
 *fill*         0x000000004026e9ee        0x2 
 .irom0.text    0x000000004026e9f0      0x131 ./build/sdklib/libnet80211.a(ieee80211_crypto_ccmp.o)
                                        0x135 (size before relaxing)
 *fill*         0x000000004026eb21        0x3 
 .irom0.text    0x000000004026eb24      0x15b ./build/sdklib/libnet80211.a(ieee80211_crypto_tkip.o)
                                        0x167 (size before relaxing)
 *fill*         0x000000004026ec7f        0x1 
 .irom0.text    0x000000004026ec80       0x7c ./build/sdklib/libnet80211.a(ieee80211_crypto_wep.o)
                                         0x80 (size before relaxing)
 .irom0.literal
                0x000000004026ecfc       0x80 ./build/core.a(app_main.o)
 .irom0.literal
                0x000000004026ed7c        0x0 ./build/sdklib/libmain.a(ets_timer.o)
 *fill*         0x000000004026ed7c        0x0 
 .irom0.literal
                0x000000004026ed7c        0x0 ./build/sdklib/libmain.a(misc.o)
 .irom0.literal
                0x000000004026ed7c        0x0 ./build/sdklib/libmain.a(uart.o)
 *fill*         0x000000004026ed7c        0x0 
 .irom0.literal
                0x000000004026ed7c        0x0 ./build/sdklib/libmain.a(user_interface.o)
 *fill*         0x000000004026ed7c        0x0 
 .irom0.literal
                0x000000004026ed7c        0x0 ./build/sdklib/libmain.a(timers.o)
 *fill*         0x000000004026ed7c        0x0 
 .irom0.literal
                0x000000004026ed7c        0x0 ./build/sdklib/libnet80211.a(ieee80211.o)
 *fill*         0x000000004026ed7c        0x0 
 .irom0.literal
                0x000000004026ed7c        0x0 ./build/sdklib/libnet80211.a(ieee80211_crypto.o)
 *fill*         0x000000004026ed7c        0x0 
 .irom0.literal
                0x000000004026ed7c        0x0 ./build/sdklib/libnet80211.a(ieee80211_hostap.o)
 *fill*         0x000000004026ed7c        0x0 
 .irom0.literal
                0x000000004026ed7c        0x0 ./build/sdklib/libnet80211.a(ieee80211_ht.o)
 .irom0.literal
                0x000000004026ed7c        0x0 ./build/sdklib/libnet80211.a(ieee80211_input.o)
 .irom0.literal
                0x000000004026ed7c        0x0 ./build/sdklib/libnet80211.a(ieee80211_output.o)
 *fill*         0x000000004026ed7c        0x0 
 .irom0.literal
                0x000000004026ed7c        0x0 ./build/sdklib/libnet80211.a(ieee80211_phy.o)
 *fill*         0x000000004026ed7c        0x0 
 .irom0.literal
                0x000000004026ed7c        0x0 ./build/sdklib/libnet80211.a(ieee80211_power.o)
 .irom0.literal
                0x000000004026ed7c        0x0 ./build/sdklib/libnet80211.a(ieee80211_proto.o)
 *fill*         0x000000004026ed7c        0x0 
 .irom0.literal
                0x000000004026ed7c        0x0 ./build/sdklib/libnet80211.a(ieee80211_scan.o)
 *fill*         0x000000004026ed7c        0x0 
 .irom0.literal
                0x000000004026ed7c        0x0 ./build/sdklib/libnet80211.a(ieee80211_sta.o)
 *fill*         0x000000004026ed7c        0x0 
 .irom0.literal
                0x000000004026ed7c        0x0 ./build/sdklib/libnet80211.a(wl_chm.o)
 *fill*         0x000000004026ed7c        0x0 
 .irom0.literal
                0x000000004026ed7c        0x0 ./build/sdklib/libnet80211.a(wl_cnx.o)
 *fill*         0x000000004026ed7c        0x0 
 .irom0.literal
                0x000000004026ed7c        0x0 ./build/sdklib/libnet80211.a(ieee80211_action.o)
 *fill*         0x000000004026ed7c        0x0 
 .irom0.literal
                0x000000004026ed7c        0x0 ./build/sdklib/libnet80211.a(ieee80211_ets.o)
 *fill*         0x000000004026ed7c        0x0 
 .irom0.literal
                0x000000004026ed7c        0x0 ./build/sdklib/libphy.a(phy.o)
 *fill*         0x000000004026ed7c        0x0 
 .irom0.literal
                0x000000004026ed7c        0x0 ./build/sdklib/libphy.a(phy_chip_v6_ana.o)
 *fill*         0x000000004026ed7c        0x0 
 .irom0.literal
                0x000000004026ed7c        0x0 ./build/sdklib/libphy.a(phy_chip_v6.o)
 *fill*         0x000000004026ed7c        0x0 
 .irom0.literal
                0x000000004026ed7c        0x0 ./build/sdklib/libphy.a(phy_chip_v6_cal.o)
 *fill*         0x000000004026ed7c        0x0 
 .irom0.literal
                0x000000004026ed7c        0x0 ./build/sdklib/libphy.a(phy_chip_v6_unused.o)
 *fill*         0x000000004026ed7c        0x0 
 .irom0.literal
                0x000000004026ed7c        0x0 ./build/sdklib/libphy.a(phy_sleep.o)
 *fill*         0x000000004026ed7c        0x0 
 .irom0.literal
                0x000000004026ed7c        0x0 ./build/sdklib/libphy.a(phy_chip_v5_romfunc.o)
 .irom0.literal
                0x000000004026ed7c        0x0 ./build/sdklib/libphy.a(phy_chip_v5_ana_romfunc.o)
 *fill*         0x000000004026ed7c        0x0 
 .irom0.literal
                0x000000004026ed7c        0x0 ./build/sdklib/libphy.a(phy_chip_v5_cal_romfunc.o)
 *fill*         0x000000004026ed7c        0x0 
 .irom0.literal
                0x000000004026ed7c        0x0 ./build/sdklib/libpp.a(esf_buf.o)
 *fill*         0x000000004026ed7c        0x0 
 .irom0.literal
                0x000000004026ed7c        0x0 ./build/sdklib/libpp.a(if_hwctrl.o)
 *fill*         0x000000004026ed7c        0x0 
 .irom0.literal
                0x000000004026ed7c        0x0 ./build/sdklib/libpp.a(lmac.o)
 *fill*         0x000000004026ed7c        0x0 
 .irom0.literal
                0x000000004026ed7c        0x0 ./build/sdklib/libpp.a(pm.o)
 *fill*         0x000000004026ed7c        0x0 
 .irom0.literal
                0x000000004026ed7c        0x0 ./build/sdklib/libpp.a(pp.o)
 *fill*         0x000000004026ed7c        0x0 
 .irom0.literal
                0x000000004026ed7c        0x0 ./build/sdklib/libpp.a(rate_control.o)
 *fill*         0x000000004026ed7c        0x0 
 .irom0.literal
                0x000000004026ed7c        0x0 ./build/sdklib/libpp.a(trc.o)
 *fill*         0x000000004026ed7c        0x0 
 .irom0.literal
                0x000000004026ed7c        0x0 ./build/sdklib/libpp.a(wdev.o)
 *fill*         0x000000004026ed7c        0x0 
 .irom0.literal
                0x000000004026ed7c        0x0 ./build/sdklib/libwpa.a(ap_config.o)
 *fill*         0x000000004026ed7c        0x0 
 .irom0.literal
                0x000000004026ed7c        0x0 ./build/sdklib/libwpa.a(common.o)
 .irom0.literal
                0x000000004026ed7c        0x0 ./build/sdklib/libwpa.a(os_xtensa.o)
 *fill*         0x000000004026ed7c        0x0 
 .irom0.literal
                0x000000004026ed7c        0x0 ./build/sdklib/libwpa.a(sha1-pbkdf2.o)
 *fill*         0x000000004026ed7c        0x0 
 .irom0.literal
                0x000000004026ed7c        0x0 ./build/sdklib/libwpa.a(wpa_auth.o)
 *fill*         0x000000004026ed7c        0x0 
 .irom0.literal
                0x000000004026ed7c        0x0 ./build/sdklib/libwpa.a(wpa_auth_ie.o)
 *fill*         0x000000004026ed7c        0x0 
 .irom0.literal
                0x000000004026ed7c        0x0 ./build/sdklib/libwpa.a(wpa.o)
 .irom0.literal
                0x000000004026ed7c        0x0 ./build/sdklib/libwpa.a(wpa_common.o)
 *fill*         0x000000004026ed7c        0x0 
 .irom0.literal
                0x000000004026ed7c        0x0 ./build/sdklib/libwpa.a(wpa_debug.o)
 .irom0.text    0x000000004026ed7c        0x8 ./build/sdklib/libwpa.a(wpa_debug.o)
                0x000000004026ed7c                sdk_eloop_cancel_timeout
                0x000000004026ed80                sdk_eloop_register_timeout
 .irom0.literal
                0x000000004026ed84        0x0 ./build/sdklib/libwpa.a(wpa_ie.o)
 *fill*         0x000000004026ed84        0x0 
 .irom0.literal
                0x000000004026ed84        0x0 ./build/sdklib/libwpa.a(wpa_main.o)
 *fill*         0x000000004026ed84        0x0 
 .irom0.literal
                0x000000004026ed84        0x0 ./build/sdklib/libwpa.a(wpas_glue.o)
 *fill*         0x000000004026ed84        0x0 
 .irom0.literal
                0x000000004026ed84        0x0 ./build/sdklib/libwpa.a(aes-unwrap.o)
 .irom0.literal
                0x000000004026ed84        0x0 ./build/sdklib/libwpa.a(aes-wrap.o)
 *fill*         0x000000004026ed84        0x0 
 .irom0.literal
                0x000000004026ed84        0x0 ./build/sdklib/libwpa.a(md5.o)
 *fill*         0x000000004026ed84        0x0 
 .irom0.literal
                0x000000004026ed84        0x0 ./build/sdklib/libwpa.a(md5-internal.o)
 .irom0.literal
                0x000000004026ed84        0x0 ./build/sdklib/libwpa.a(rc4.o)
 .irom0.text    0x000000004026ed84       0xdb ./build/sdklib/libwpa.a(rc4.o)
                0x000000004026ed84                sdk_rc4_skip
 *fill*         0x000000004026ee5f        0x1 
 .irom0.literal
                0x000000004026ee60        0x0 ./build/sdklib/libwpa.a(sha1.o)
 *fill*         0x000000004026ee60        0x0 
 .irom0.literal
                0x000000004026ee60        0x0 ./build/sdklib/libwpa.a(sha1-internal.o)
 *fill*         0x000000004026ee60        0x0 
 .irom0.literal
                0x000000004026ee60        0x0 ./build/sdklib/libwpa.a(aes-internal-dec.o)
 *fill*         0x000000004026ee60        0x0 
 .irom0.literal
                0x000000004026ee60        0x0 ./build/sdklib/libwpa.a(aes-internal-enc.o)
 *fill*         0x000000004026ee60        0x0 
 .irom0.literal
                0x000000004026ee60        0x0 ./build/sdklib/libwpa.a(aes-internal.o)
 *fill*         0x000000004026ee60        0x0 
 .irom.text     0x000000004026ee60      0x900 ./build/sdklib/libwpa.a(aes-internal.o)
                0x000000004026ee60                sdk_Te0
                0x000000004026f260                sdk_Td0
                0x000000004026f660                sdk_Td4s_rom
 .irom0.literal
                0x000000004026f760        0x0 ./build/sdklib/libnet80211.a(ieee80211_crypto_ccmp.o)
 *fill*         0x000000004026f760        0x0 
 .irom0.literal
                0x000000004026f760        0x0 ./build/sdklib/libnet80211.a(ieee80211_crypto_tkip.o)
 *fill*         0x000000004026f760        0x0 
 .irom0.literal
                0x000000004026f760        0x0 ./build/sdklib/libnet80211.a(ieee80211_crypto_wep.o)
                0x000000004026f760                _irom0_text_end = ABSOLUTE (.)

.lit4           0x00000000401075d0        0x0
                0x00000000401075d0                _lit4_start = ABSOLUTE (.)
 *(*.lit4)
 *(.lit4.*)
 *(.gnu.linkonce.lit4.*)
                0x00000000401075d0                _lit4_end = ABSOLUTE (.)
                0x00000000400040c0                PROVIDE (SPI_sector_erase, 0x400040c0)
                0x0000000040004174                PROVIDE (SPI_page_program, 0x40004174)
                0x00000000400042ac                PROVIDE (SPI_read_data, 0x400042ac)
                0x00000000400043c8                PROVIDE (SPI_read_status, 0x400043c8)
                0x0000000040004400                PROVIDE (SPI_write_status, 0x40004400)
                0x000000004000443c                PROVIDE (SPI_write_enable, 0x4000443c)
                0x000000004000448c                PROVIDE (Wait_SPI_Idle, 0x4000448c)
                0x00000000400044c0                PROVIDE (Enable_QMode, 0x400044c0)
                0x0000000040004508                PROVIDE (Disable_QMode, 0x40004508)
                0x0000000040004678                PROVIDE (rom_Cache_Read_Enable, 0x40004678)
                0x00000000400047f0                PROVIDE (Cache_Read_Disable, 0x400047f0)
                0x0000000040004678                Cache_Read_Enable = rom_Cache_Read_Enable
                0x0000000040004f40                PROVIDE (lldesc_build_chain, 0x40004f40)
                0x0000000040005050                PROVIDE (lldesc_num2link, 0x40005050)
                0x000000004000507c                PROVIDE (lldesc_set_owner, 0x4000507c)
                0x000000004000c538                PROVIDE (__adddf3, 0x4000c538)
                0x000000004000c180                PROVIDE (__addsf3, 0x4000c180)
                0x000000004000cb94                PROVIDE (__divdf3, 0x4000cb94)
                0x000000004000ce60                PROVIDE (__divdi3, 0x4000ce60)
                0x000000004000dc88                PROVIDE (__divsi3, 0x4000dc88)
                0x000000004000cdfc                PROVIDE (__extendsfdf2, 0x4000cdfc)
                0x000000004000ccb8                PROVIDE (__fixdfsi, 0x4000ccb8)
                0x000000004000cd00                PROVIDE (__fixunsdfsi, 0x4000cd00)
                0x000000004000c4c4                PROVIDE (__fixunssfsi, 0x4000c4c4)
                0x000000004000e2f0                PROVIDE (__floatsidf, 0x4000e2f0)
                0x000000004000e2ac                PROVIDE (__floatsisf, 0x4000e2ac)
                0x000000004000e2e8                PROVIDE (__floatunsidf, 0x4000e2e8)
                0x000000004000e2a4                PROVIDE (__floatunsisf, 0x4000e2a4)
                0x000000004000c8f0                PROVIDE (__muldf3, 0x4000c8f0)
                0x0000000040000650                PROVIDE (__muldi3, 0x40000650)
                0x000000004000c3dc                PROVIDE (__mulsf3, 0x4000c3dc)
                0x000000004000c688                PROVIDE (__subdf3, 0x4000c688)
                0x000000004000c268                PROVIDE (__subsf3, 0x4000c268)
                0x000000004000cd5c                PROVIDE (__truncdfsf2, 0x4000cd5c)
                0x000000004000d310                PROVIDE (__udivdi3, 0x4000d310)
                0x000000004000e21c                PROVIDE (__udivsi3, 0x4000e21c)
                0x000000004000d770                PROVIDE (__umoddi3, 0x4000d770)
                0x000000004000e268                PROVIDE (__umodsi3, 0x4000e268)
                0x000000004000dcf0                PROVIDE (__umulsidi3, 0x4000dcf0)
                0x0000000040002ae8                PROVIDE (bzero, 0x40002ae8)
                0x00000000400018d4                PROVIDE (memcmp, 0x400018d4)
                0x00000000400018b4                PROVIDE (memcpy, 0x400018b4)
                0x00000000400018c4                PROVIDE (memmove, 0x400018c4)
                0x00000000400018a4                PROVIDE (memset, 0x400018a4)
                0x0000000040002aa8                PROVIDE (strcmp, 0x40002aa8)
                0x0000000040002a88                PROVIDE (strcpy, 0x40002a88)
                0x0000000040002ac8                PROVIDE (strlen, 0x40002ac8)
                0x0000000040002ab8                PROVIDE (strncmp, 0x40002ab8)
                0x0000000040002a98                PROVIDE (strncpy, 0x40002a98)
                0x0000000040002ad8                PROVIDE (strstr, 0x40002ad8)
                0x0000000040000f74                PROVIDE (ETS_INTR_LOCK, 0x40000f74)
                0x0000000040000f80                PROVIDE (ETS_INTR_UNLOCK, 0x40000f80)
OUTPUT(build/simple.out elf32-xtensa-le)

.xtensa.info    0x0000000000000000       0x38
 .xtensa.info   0x0000000000000000       0x38 ./build/core.a(exception_vectors.o)
 .xtensa.info   0x0000000000000000        0x0 ./build/core.a(app_main.o)
 .xtensa.info   0x0000000000000000        0x0 ../../libc/xtensa-lx106-elf/lib/libc.a(lib_a-malloc.o)
 .xtensa.info   0x0000000000000000        0x0 ../../libc/xtensa-lx106-elf/lib/libc.a(lib_a-memcpy.o)
 .xtensa.info   0x0000000000000000        0x0 ../../libc/xtensa-lx106-elf/lib/libc.a(lib_a-memset.o)
 .xtensa.info   0x0000000000000000        0x0 ../../libc/xtensa-lx106-elf/lib/libc.a(lib_a-nano-freer.o)
 .xtensa.info   0x0000000000000000        0x0 ../../libc/xtensa-lx106-elf/lib/libc.a(lib_a-nano-mallocr.o)
 .xtensa.info   0x0000000000000000        0x0 ../../libc/xtensa-lx106-elf/lib/libc.a(lib_a-printf.o)
 .xtensa.info   0x0000000000000000        0x0 ../../libc/xtensa-lx106-elf/lib/libc.a(lib_a-putchar.o)
 .xtensa.info   0x0000000000000000        0x0 ../../libc/xtensa-lx106-elf/lib/libc.a(lib_a-putc.o)
 .xtensa.info   0x0000000000000000        0x0 ../../libc/xtensa-lx106-elf/lib/libc.a(lib_a-puts.o)
 .xtensa.info   0x0000000000000000        0x0 ../../libc/xtensa-lx106-elf/lib/libc.a(lib_a-strlen.o)
 .xtensa.info   0x0000000000000000        0x0 ../../libc/xtensa-lx106-elf/lib/libc.a(lib_a-wbuf.o)
 .xtensa.info   0x0000000000000000        0x0 ../../libc/xtensa-lx106-elf/lib/libc.a(lib_a-wsetup.o)
 .xtensa.info   0x0000000000000000        0x0 ../../libc/xtensa-lx106-elf/lib/libc.a(lock.o)
 .xtensa.info   0x0000000000000000        0x0 ../../libc/xtensa-lx106-elf/lib/libc.a(lib_a-fflush.o)
 .xtensa.info   0x0000000000000000        0x0 ../../libc/xtensa-lx106-elf/lib/libc.a(lib_a-findfp.o)
 .xtensa.info   0x0000000000000000        0x0 ../../libc/xtensa-lx106-elf/lib/libc.a(lib_a-fvwrite.o)
 .xtensa.info   0x0000000000000000        0x0 ../../libc/xtensa-lx106-elf/lib/libc.a(lib_a-fwalk.o)
 .xtensa.info   0x0000000000000000        0x0 ../../libc/xtensa-lx106-elf/lib/libc.a(lib_a-impure.o)
 .xtensa.info   0x0000000000000000        0x0 ../../libc/xtensa-lx106-elf/lib/libc.a(lib_a-makebuf.o)
 .xtensa.info   0x0000000000000000        0x0 ../../libc/xtensa-lx106-elf/lib/libc.a(lib_a-memchr.o)
 .xtensa.info   0x0000000000000000        0x0 ../../libc/xtensa-lx106-elf/lib/libc.a(lib_a-memmove.o)
 .xtensa.info   0x0000000000000000        0x0 ../../libc/xtensa-lx106-elf/lib/libc.a(lib_a-nano-reallocr.o)
 .xtensa.info   0x0000000000000000        0x0 ../../libc/xtensa-lx106-elf/lib/libc.a(lib_a-nano-vfprintf.o)
 .xtensa.info   0x0000000000000000        0x0 ../../libc/xtensa-lx106-elf/lib/libc.a(lib_a-stdio.o)
 .xtensa.info   0x0000000000000000        0x0 ../../libc/xtensa-lx106-elf/lib/libc.a(isatty.o)
 .xtensa.info   0x0000000000000000        0x0 ../../libc/xtensa-lx106-elf/lib/libc.a(lib_a-fclose.o)
 .xtensa.info   0x0000000000000000        0x0 ../../libc/xtensa-lx106-elf/lib/libc.a(lib_a-fputwc.o)
 .xtensa.info   0x0000000000000000        0x0 ../../libc/xtensa-lx106-elf/lib/libc.a(lib_a-locale.o)
 .xtensa.info   0x0000000000000000        0x0 ../../libc/xtensa-lx106-elf/lib/libc.a(lib_a-nano-msizer.o)
 .xtensa.info   0x0000000000000000        0x0 ../../libc/xtensa-lx106-elf/lib/libc.a(lib_a-nano-vfprintf_i.o)
 .xtensa.info   0x0000000000000000        0x0 ../../libc/xtensa-lx106-elf/lib/libc.a(lib_a-strcmp.o)
 .xtensa.info   0x0000000000000000        0x0 ../../libc/xtensa-lx106-elf/lib/libc.a(lib_a-wcrtomb.o)
 .xtensa.info   0x0000000000000000        0x0 ../../libc/xtensa-lx106-elf/lib/libc.a(lib_a-wctomb_r.o)
 .xtensa.info   0x0000000000000000        0x0 ./build/sdklib/libmain.a(ets_timer.o)
 .xtensa.info   0x0000000000000000        0x0 ./build/sdklib/libmain.a(misc.o)
 .xtensa.info   0x0000000000000000        0x0 ./build/sdklib/libmain.a(spi_flash.o)
 .xtensa.info   0x0000000000000000        0x0 ./build/sdklib/libmain.a(uart.o)
 .xtensa.info   0x0000000000000000        0x0 ./build/sdklib/libmain.a(user_interface.o)
 .xtensa.info   0x0000000000000000        0x0 ./build/sdklib/libmain.a(os_cpu_a.o)
 .xtensa.info   0x0000000000000000        0x0 ./build/sdklib/libmain.a(xtensa_context.o)
 .xtensa.info   0x0000000000000000        0x0 ./build/sdklib/libmain.a(timers.o)
 .xtensa.info   0x0000000000000000        0x0 ./build/sdklib/libnet80211.a(ieee80211.o)
 .xtensa.info   0x0000000000000000        0x0 ./build/sdklib/libnet80211.a(ieee80211_crypto.o)
 .xtensa.info   0x0000000000000000        0x0 ./build/sdklib/libnet80211.a(ieee80211_hostap.o)
 .xtensa.info   0x0000000000000000        0x0 ./build/sdklib/libnet80211.a(ieee80211_ht.o)
 .xtensa.info   0x0000000000000000        0x0 ./build/sdklib/libnet80211.a(ieee80211_input.o)
 .xtensa.info   0x0000000000000000        0x0 ./build/sdklib/libnet80211.a(ieee80211_output.o)
 .xtensa.info   0x0000000000000000        0x0 ./build/sdklib/libnet80211.a(ieee80211_phy.o)
 .xtensa.info   0x0000000000000000        0x0 ./build/sdklib/libnet80211.a(ieee80211_power.o)
 .xtensa.info   0x0000000000000000        0x0 ./build/sdklib/libnet80211.a(ieee80211_proto.o)
 .xtensa.info   0x0000000000000000        0x0 ./build/sdklib/libnet80211.a(ieee80211_scan.o)
 .xtensa.info   0x0000000000000000        0x0 ./build/sdklib/libnet80211.a(ieee80211_sta.o)
 .xtensa.info   0x0000000000000000        0x0 ./build/sdklib/libnet80211.a(wl_chm.o)
 .xtensa.info   0x0000000000000000        0x0 ./build/sdklib/libnet80211.a(wl_cnx.o)
 .xtensa.info   0x0000000000000000        0x0 ./build/sdklib/libnet80211.a(ieee80211_action.o)
 .xtensa.info   0x0000000000000000        0x0 ./build/sdklib/libnet80211.a(ieee80211_ets.o)
 .xtensa.info   0x0000000000000000        0x0 ./build/sdklib/libphy.a(phy.o)
 .xtensa.info   0x0000000000000000        0x0 ./build/sdklib/libphy.a(phy_chip_v6_ana.o)
 .xtensa.info   0x0000000000000000        0x0 ./build/sdklib/libphy.a(phy_chip_v6.o)
 .xtensa.info   0x0000000000000000        0x0 ./build/sdklib/libphy.a(phy_chip_v6_cal.o)
 .xtensa.info   0x0000000000000000        0x0 ./build/sdklib/libphy.a(phy_chip_v6_unused.o)
 .xtensa.info   0x0000000000000000        0x0 ./build/sdklib/libphy.a(phy_sleep.o)
 .xtensa.info   0x0000000000000000        0x0 ./build/sdklib/libphy.a(phy_chip_v5_romfunc.o)
 .xtensa.info   0x0000000000000000        0x0 ./build/sdklib/libphy.a(phy_chip_v5_ana_romfunc.o)
 .xtensa.info   0x0000000000000000        0x0 ./build/sdklib/libphy.a(phy_chip_v5_cal_romfunc.o)
 .xtensa.info   0x0000000000000000        0x0 ./build/sdklib/libpp.a(esf_buf.o)
 .xtensa.info   0x0000000000000000        0x0 ./build/sdklib/libpp.a(if_hwctrl.o)
 .xtensa.info   0x0000000000000000        0x0 ./build/sdklib/libpp.a(lmac.o)
 .xtensa.info   0x0000000000000000        0x0 ./build/sdklib/libpp.a(pm.o)
 .xtensa.info   0x0000000000000000        0x0 ./build/sdklib/libpp.a(pp.o)
 .xtensa.info   0x0000000000000000        0x0 ./build/sdklib/libpp.a(rate_control.o)
 .xtensa.info   0x0000000000000000        0x0 ./build/sdklib/libpp.a(trc.o)
 .xtensa.info   0x0000000000000000        0x0 ./build/sdklib/libpp.a(wdev.o)
 .xtensa.info   0x0000000000000000        0x0 ./build/sdklib/libwpa.a(ap_config.o)
 .xtensa.info   0x0000000000000000        0x0 ./build/sdklib/libwpa.a(common.o)
 .xtensa.info   0x0000000000000000        0x0 ./build/sdklib/libwpa.a(os_xtensa.o)
 .xtensa.info   0x0000000000000000        0x0 ./build/sdklib/libwpa.a(sha1-pbkdf2.o)
 .xtensa.info   0x0000000000000000        0x0 ./build/sdklib/libwpa.a(wpa_auth.o)
 .xtensa.info   0x0000000000000000        0x0 ./build/sdklib/libwpa.a(wpa_auth_ie.o)
 .xtensa.info   0x0000000000000000        0x0 ./build/sdklib/libwpa.a(wpa.o)
 .xtensa.info   0x0000000000000000        0x0 ./build/sdklib/libwpa.a(wpa_common.o)
 .xtensa.info   0x0000000000000000        0x0 ./build/sdklib/libwpa.a(wpa_debug.o)
 .xtensa.info   0x0000000000000000        0x0 ./build/sdklib/libwpa.a(wpa_ie.o)
 .xtensa.info   0x0000000000000000        0x0 ./build/sdklib/libwpa.a(wpa_main.o)
 .xtensa.info   0x0000000000000000        0x0 ./build/sdklib/libwpa.a(wpas_glue.o)
 .xtensa.info   0x0000000000000000        0x0 ./build/sdklib/libwpa.a(aes-unwrap.o)
 .xtensa.info   0x0000000000000000        0x0 ./build/sdklib/libwpa.a(aes-wrap.o)
 .xtensa.info   0x0000000000000000        0x0 ./build/sdklib/libwpa.a(md5.o)
 .xtensa.info   0x0000000000000000        0x0 ./build/sdklib/libwpa.a(md5-internal.o)
 .xtensa.info   0x0000000000000000        0x0 ./build/sdklib/libwpa.a(rc4.o)
 .xtensa.info   0x0000000000000000        0x0 ./build/sdklib/libwpa.a(sha1.o)
 .xtensa.info   0x0000000000000000        0x0 ./build/sdklib/libwpa.a(sha1-internal.o)
 .xtensa.info   0x0000000000000000        0x0 ./build/sdklib/libwpa.a(aes-internal-dec.o)
 .xtensa.info   0x0000000000000000        0x0 ./build/sdklib/libwpa.a(aes-internal-enc.o)
 .xtensa.info   0x0000000000000000        0x0 ./build/sdklib/libwpa.a(aes-internal.o)
 .xtensa.info   0x0000000000000000        0x0 ./build/program.a(simple.o)
 .xtensa.info   0x0000000000000000        0x0 ./build/freertos.a(queue.o)
 .xtensa.info   0x0000000000000000        0x0 ./build/freertos.a(list.o)
 .xtensa.info   0x0000000000000000        0x0 ./build/freertos.a(tasks.o)
 .xtensa.info   0x0000000000000000        0x0 ./build/freertos.a(timers.o)
 .xtensa.info   0x0000000000000000        0x0 ./build/freertos.a(port.o)
 .xtensa.info   0x0000000000000000        0x0 ./build/lwip.a(esp_interface.o)
 .xtensa.info   0x0000000000000000        0x0 ./build/lwip.a(tcpip.o)
 .xtensa.info   0x0000000000000000        0x0 ./build/lwip.a(dhcp.o)
 .xtensa.info   0x0000000000000000        0x0 ./build/lwip.a(init.o)
 .xtensa.info   0x0000000000000000        0x0 ./build/lwip.a(memp.o)
 .xtensa.info   0x0000000000000000        0x0 ./build/lwip.a(dns.o)
 .xtensa.info   0x0000000000000000        0x0 ./build/lwip.a(tcp.o)
 .xtensa.info   0x0000000000000000        0x0 ./build/lwip.a(pbuf.o)
 .xtensa.info   0x0000000000000000        0x0 ./build/lwip.a(netif.o)
 .xtensa.info   0x0000000000000000        0x0 ./build/lwip.a(stats.o)
 .xtensa.info   0x0000000000000000        0x0 ./build/lwip.a(timers.o)
 .xtensa.info   0x0000000000000000        0x0 ./build/lwip.a(udp.o)
 .xtensa.info   0x0000000000000000        0x0 ./build/lwip.a(tcp_out.o)
 .xtensa.info   0x0000000000000000        0x0 ./build/lwip.a(ip_addr.o)
 .xtensa.info   0x0000000000000000        0x0 ./build/lwip.a(ip.o)
 .xtensa.info   0x0000000000000000        0x0 ./build/lwip.a(inet_chksum.o)
 .xtensa.info   0x0000000000000000        0x0 ./build/lwip.a(icmp.o)
 .xtensa.info   0x0000000000000000        0x0 ./build/lwip.a(etharp.o)
 .xtensa.info   0x0000000000000000        0x0 ./build/lwip.a(sys_arch.o)
 .xtensa.info   0x0000000000000000        0x0 ./build/lwip.a(sockets.o)
 .xtensa.info   0x0000000000000000        0x0 ./build/lwip.a(tcp_in.o)
 .xtensa.info   0x0000000000000000        0x0 ./build/lwip.a(raw.o)
 .xtensa.info   0x0000000000000000        0x0 ./build/lwip.a(ip_frag.o)
 .xtensa.info   0x0000000000000000        0x0 ./build/lwip.a(api_lib.o)
 .xtensa.info   0x0000000000000000        0x0 ./build/lwip.a(netbuf.o)
 .xtensa.info   0x0000000000000000        0x0 ./build/lwip.a(api_msg.o)
 .xtensa.info   0x0000000000000000        0x0 ./build/core.a(sdk_compat.o)
 .xtensa.info   0x0000000000000000        0x0 ./build/core.a(newlib_syscalls.o)
 .xtensa.info   0x0000000000000000        0x0 /home/olga/esp/esp-open-sdk/xtensa-lx106-elf/xtensa-lx106-elf/sysroot/usr/lib/libhal.a(clock.o)
 .xtensa.info   0x0000000000000000        0x0 /home/olga/esp/esp-open-sdk/xtensa-lx106-elf/xtensa-lx106-elf/sysroot/usr/lib/libhal.a(int_asm--set_intset.o)
 .xtensa.info   0x0000000000000000        0x0 /home/olga/esp/esp-open-sdk/xtensa-lx106-elf/lib/gcc/xtensa-lx106-elf/4.8.2/libgcc.a(_divsi3.o)
 .xtensa.info   0x0000000000000000        0x0 /home/olga/esp/esp-open-sdk/xtensa-lx106-elf/lib/gcc/xtensa-lx106-elf/4.8.2/libgcc.a(_modsi3.o)
 .xtensa.info   0x0000000000000000        0x0 /home/olga/esp/esp-open-sdk/xtensa-lx106-elf/lib/gcc/xtensa-lx106-elf/4.8.2/libgcc.a(_udivsi3.o)
 .xtensa.info   0x0000000000000000        0x0 /home/olga/esp/esp-open-sdk/xtensa-lx106-elf/lib/gcc/xtensa-lx106-elf/4.8.2/libgcc.a(_umodsi3.o)
 .xtensa.info   0x0000000000000000        0x0 /home/olga/esp/esp-open-sdk/xtensa-lx106-elf/lib/gcc/xtensa-lx106-elf/4.8.2/libgcc.a(_ashrdi3.o)
 .xtensa.info   0x0000000000000000        0x0 /home/olga/esp/esp-open-sdk/xtensa-lx106-elf/lib/gcc/xtensa-lx106-elf/4.8.2/libgcc.a(_addsubsf3.o)
 .xtensa.info   0x0000000000000000        0x0 /home/olga/esp/esp-open-sdk/xtensa-lx106-elf/lib/gcc/xtensa-lx106-elf/4.8.2/libgcc.a(_mulsf3.o)
 .xtensa.info   0x0000000000000000        0x0 /home/olga/esp/esp-open-sdk/xtensa-lx106-elf/lib/gcc/xtensa-lx106-elf/4.8.2/libgcc.a(_divsf3.o)
 .xtensa.info   0x0000000000000000        0x0 /home/olga/esp/esp-open-sdk/xtensa-lx106-elf/lib/gcc/xtensa-lx106-elf/4.8.2/libgcc.a(_fixsfsi.o)
 .xtensa.info   0x0000000000000000        0x0 /home/olga/esp/esp-open-sdk/xtensa-lx106-elf/lib/gcc/xtensa-lx106-elf/4.8.2/libgcc.a(_fixunssfsi.o)
 .xtensa.info   0x0000000000000000        0x0 /home/olga/esp/esp-open-sdk/xtensa-lx106-elf/lib/gcc/xtensa-lx106-elf/4.8.2/libgcc.a(_floatsisf.o)
 .xtensa.info   0x0000000000000000        0x0 /home/olga/esp/esp-open-sdk/xtensa-lx106-elf/lib/gcc/xtensa-lx106-elf/4.8.2/libgcc.a(_addsubdf3.o)
 .xtensa.info   0x0000000000000000        0x0 /home/olga/esp/esp-open-sdk/xtensa-lx106-elf/lib/gcc/xtensa-lx106-elf/4.8.2/libgcc.a(_muldf3.o)
 .xtensa.info   0x0000000000000000        0x0 /home/olga/esp/esp-open-sdk/xtensa-lx106-elf/lib/gcc/xtensa-lx106-elf/4.8.2/libgcc.a(_divdf3.o)
 .xtensa.info   0x0000000000000000        0x0 /home/olga/esp/esp-open-sdk/xtensa-lx106-elf/lib/gcc/xtensa-lx106-elf/4.8.2/libgcc.a(_fixdfsi.o)
 .xtensa.info   0x0000000000000000        0x0 /home/olga/esp/esp-open-sdk/xtensa-lx106-elf/lib/gcc/xtensa-lx106-elf/4.8.2/libgcc.a(_floatsidf.o)
 .xtensa.info   0x0000000000000000        0x0 /home/olga/esp/esp-open-sdk/xtensa-lx106-elf/lib/gcc/xtensa-lx106-elf/4.8.2/libgcc.a(_truncdfsf2.o)
 .xtensa.info   0x0000000000000000        0x0 /home/olga/esp/esp-open-sdk/xtensa-lx106-elf/lib/gcc/xtensa-lx106-elf/4.8.2/libgcc.a(_extendsfdf2.o)
 .xtensa.info   0x0000000000000000        0x0 /home/olga/esp/esp-open-sdk/xtensa-lx106-elf/lib/gcc/xtensa-lx106-elf/4.8.2/libgcc.a(_muldi3.o)
 .xtensa.info   0x0000000000000000        0x0 /home/olga/esp/esp-open-sdk/xtensa-lx106-elf/lib/gcc/xtensa-lx106-elf/4.8.2/libgcc.a(_popcountsi2.o)
 .xtensa.info   0x0000000000000000        0x0 /home/olga/esp/esp-open-sdk/xtensa-lx106-elf/lib/gcc/xtensa-lx106-elf/4.8.2/libgcc.a(_divdi3.o)
 .xtensa.info   0x0000000000000000        0x0 /home/olga/esp/esp-open-sdk/xtensa-lx106-elf/lib/gcc/xtensa-lx106-elf/4.8.2/libgcc.a(_umoddi3.o)
 .xtensa.info   0x0000000000000000        0x0 /home/olga/esp/esp-open-sdk/xtensa-lx106-elf/lib/gcc/xtensa-lx106-elf/4.8.2/libgcc.a(_umulsidi3.o)
 .xtensa.info   0x0000000000000000        0x0 /home/olga/esp/esp-open-sdk/xtensa-lx106-elf/lib/gcc/xtensa-lx106-elf/4.8.2/libgcc.a(_popcount_tab.o)
 .xtensa.info   0x0000000000000000        0x0 ../../libc/xtensa-lx106-elf/lib/libc.a(lib_a-bzero.o)
 .xtensa.info   0x0000000000000000        0x0 ../../libc/xtensa-lx106-elf/lib/libc.a(lib_a-calloc.o)
 .xtensa.info   0x0000000000000000        0x0 ../../libc/xtensa-lx106-elf/lib/libc.a(lib_a-memcmp.o)
 .xtensa.info   0x0000000000000000        0x0 ../../libc/xtensa-lx106-elf/lib/libc.a(lib_a-mstats.o)
 .xtensa.info   0x0000000000000000        0x0 ../../libc/xtensa-lx106-elf/lib/libc.a(lib_a-nano-callocr.o)
 .xtensa.info   0x0000000000000000        0x0 ../../libc/xtensa-lx106-elf/lib/libc.a(lib_a-nano-mallinfor.o)
 .xtensa.info   0x0000000000000000        0x0 ../../libc/xtensa-lx106-elf/lib/libc.a(lib_a-nano-malloptr.o)
 .xtensa.info   0x0000000000000000        0x0 ../../libc/xtensa-lx106-elf/lib/libc.a(lib_a-nano-mallstatsr.o)
 .xtensa.info   0x0000000000000000        0x0 ../../libc/xtensa-lx106-elf/lib/libc.a(lib_a-rand.o)
 .xtensa.info   0x0000000000000000        0x0 ../../libc/xtensa-lx106-elf/lib/libc.a(lib_a-sprintf.o)
 .xtensa.info   0x0000000000000000        0x0 ../../libc/xtensa-lx106-elf/lib/libc.a(lib_a-strncmp.o)
 .xtensa.info   0x0000000000000000        0x0 ../../libc/xtensa-lx106-elf/lib/libc.a(lib_a-strncpy.o)
 .xtensa.info   0x0000000000000000        0x0 ../../libc/xtensa-lx106-elf/lib/libc.a(lib_a-strrchr.o)
 .xtensa.info   0x0000000000000000        0x0 ../../libc/xtensa-lx106-elf/lib/libc.a(lib_a-syssbrk.o)
 .xtensa.info   0x0000000000000000        0x0 ../../libc/xtensa-lx106-elf/lib/libc.a(lib_a-fprintf.o)
 .xtensa.info   0x0000000000000000        0x0 ../../libc/xtensa-lx106-elf/lib/libc.a(lib_a-nano-svfprintf.o)
 .xtensa.info   0x0000000000000000        0x0 ../../libc/xtensa-lx106-elf/lib/libc.a(lib_a-strchr.o)
 .xtensa.info   0x0000000000000000        0x0 ./build/sdklib/libnet80211.a(ieee80211_crypto_ccmp.o)
 .xtensa.info   0x0000000000000000        0x0 ./build/sdklib/libnet80211.a(ieee80211_crypto_tkip.o)
 .xtensa.info   0x0000000000000000        0x0 ./build/sdklib/libnet80211.a(ieee80211_crypto_wep.o)

.comment        0x0000000000000000     0x1209
 .comment       0x0000000000000000       0x21 ./build/core.a(app_main.o)
                                         0x22 (size before relaxing)
 .comment       0x0000000000000000       0x22 ../../libc/xtensa-lx106-elf/lib/libc.a(lib_a-malloc.o)
 .comment       0x0000000000000000       0x22 ../../libc/xtensa-lx106-elf/lib/libc.a(lib_a-nano-freer.o)
 .comment       0x0000000000000000       0x22 ../../libc/xtensa-lx106-elf/lib/libc.a(lib_a-nano-mallocr.o)
 .comment       0x0000000000000000       0x22 ../../libc/xtensa-lx106-elf/lib/libc.a(lib_a-printf.o)
 .comment       0x0000000000000000       0x22 ../../libc/xtensa-lx106-elf/lib/libc.a(lib_a-putchar.o)
 .comment       0x0000000000000000       0x22 ../../libc/xtensa-lx106-elf/lib/libc.a(lib_a-putc.o)
 .comment       0x0000000000000000       0x22 ../../libc/xtensa-lx106-elf/lib/libc.a(lib_a-puts.o)
 .comment       0x0000000000000000       0x22 ../../libc/xtensa-lx106-elf/lib/libc.a(lib_a-wbuf.o)
 .comment       0x0000000000000000       0x22 ../../libc/xtensa-lx106-elf/lib/libc.a(lib_a-wsetup.o)
 .comment       0x0000000000000000       0x22 ../../libc/xtensa-lx106-elf/lib/libc.a(lock.o)
 .comment       0x0000000000000000       0x22 ../../libc/xtensa-lx106-elf/lib/libc.a(lib_a-fflush.o)
 .comment       0x0000000000000000       0x22 ../../libc/xtensa-lx106-elf/lib/libc.a(lib_a-findfp.o)
 .comment       0x0000000000000000       0x22 ../../libc/xtensa-lx106-elf/lib/libc.a(lib_a-fvwrite.o)
 .comment       0x0000000000000000       0x22 ../../libc/xtensa-lx106-elf/lib/libc.a(lib_a-fwalk.o)
 .comment       0x0000000000000000       0x22 ../../libc/xtensa-lx106-elf/lib/libc.a(lib_a-impure.o)
 .comment       0x0000000000000000       0x22 ../../libc/xtensa-lx106-elf/lib/libc.a(lib_a-makebuf.o)
 .comment       0x0000000000000000       0x22 ../../libc/xtensa-lx106-elf/lib/libc.a(lib_a-memchr.o)
 .comment       0x0000000000000000       0x22 ../../libc/xtensa-lx106-elf/lib/libc.a(lib_a-memmove.o)
 .comment       0x0000000000000000       0x22 ../../libc/xtensa-lx106-elf/lib/libc.a(lib_a-nano-reallocr.o)
 .comment       0x0000000000000000       0x22 ../../libc/xtensa-lx106-elf/lib/libc.a(lib_a-nano-vfprintf.o)
 .comment       0x0000000000000000       0x22 ../../libc/xtensa-lx106-elf/lib/libc.a(lib_a-stdio.o)
 .comment       0x0000000000000000       0x22 ../../libc/xtensa-lx106-elf/lib/libc.a(isatty.o)
 .comment       0x0000000000000000       0x22 ../../libc/xtensa-lx106-elf/lib/libc.a(lib_a-fclose.o)
 .comment       0x0000000000000000       0x22 ../../libc/xtensa-lx106-elf/lib/libc.a(lib_a-fputwc.o)
 .comment       0x0000000000000000       0x22 ../../libc/xtensa-lx106-elf/lib/libc.a(lib_a-locale.o)
 .comment       0x0000000000000000       0x22 ../../libc/xtensa-lx106-elf/lib/libc.a(lib_a-nano-msizer.o)
 .comment       0x0000000000000000       0x22 ../../libc/xtensa-lx106-elf/lib/libc.a(lib_a-nano-vfprintf_i.o)
 .comment       0x0000000000000000       0x22 ../../libc/xtensa-lx106-elf/lib/libc.a(lib_a-wcrtomb.o)
 .comment       0x0000000000000000       0x22 ../../libc/xtensa-lx106-elf/lib/libc.a(lib_a-wctomb_r.o)
 .comment       0x0000000000000021       0x47 ./build/sdklib/libmain.a(ets_timer.o)
 .comment       0x0000000000000068       0x42 ./build/sdklib/libmain.a(misc.o)
 .comment       0x00000000000000aa       0x47 ./build/sdklib/libmain.a(spi_flash.o)
 .comment       0x00000000000000f1       0x42 ./build/sdklib/libmain.a(uart.o)
 .comment       0x0000000000000133       0x4c ./build/sdklib/libmain.a(user_interface.o)
 .comment       0x000000000000017f       0x44 ./build/sdklib/libmain.a(timers.o)
 .comment       0x00000000000001c3       0x47 ./build/sdklib/libnet80211.a(ieee80211.o)
 .comment       0x000000000000020a       0x4e ./build/sdklib/libnet80211.a(ieee80211_crypto.o)
 .comment       0x0000000000000258       0x4e ./build/sdklib/libnet80211.a(ieee80211_hostap.o)
 .comment       0x00000000000002a6       0x4a ./build/sdklib/libnet80211.a(ieee80211_ht.o)
 .comment       0x00000000000002f0       0x4d ./build/sdklib/libnet80211.a(ieee80211_input.o)
 .comment       0x000000000000033d       0x4e ./build/sdklib/libnet80211.a(ieee80211_output.o)
 .comment       0x000000000000038b       0x4b ./build/sdklib/libnet80211.a(ieee80211_phy.o)
 .comment       0x00000000000003d6       0x4d ./build/sdklib/libnet80211.a(ieee80211_power.o)
 .comment       0x0000000000000423       0x4d ./build/sdklib/libnet80211.a(ieee80211_proto.o)
 .comment       0x0000000000000470       0x4c ./build/sdklib/libnet80211.a(ieee80211_scan.o)
 .comment       0x00000000000004bc       0x4b ./build/sdklib/libnet80211.a(ieee80211_sta.o)
 .comment       0x0000000000000507       0x44 ./build/sdklib/libnet80211.a(wl_chm.o)
 .comment       0x000000000000054b       0x44 ./build/sdklib/libnet80211.a(wl_cnx.o)
 .comment       0x000000000000058f       0x4e ./build/sdklib/libnet80211.a(ieee80211_action.o)
 .comment       0x00000000000005dd       0x4b ./build/sdklib/libnet80211.a(ieee80211_ets.o)
 .comment       0x0000000000000628       0x41 ./build/sdklib/libphy.a(phy.o)
 .comment       0x0000000000000669       0x4d ./build/sdklib/libphy.a(phy_chip_v6_ana.o)
 .comment       0x00000000000006b6       0x49 ./build/sdklib/libphy.a(phy_chip_v6.o)
 .comment       0x00000000000006ff       0x4d ./build/sdklib/libphy.a(phy_chip_v6_cal.o)
 .comment       0x000000000000074c       0x50 ./build/sdklib/libphy.a(phy_chip_v6_unused.o)
 .comment       0x000000000000079c       0x47 ./build/sdklib/libphy.a(phy_sleep.o)
 .comment       0x00000000000007e3       0x51 ./build/sdklib/libphy.a(phy_chip_v5_romfunc.o)
 .comment       0x0000000000000834       0x55 ./build/sdklib/libphy.a(phy_chip_v5_ana_romfunc.o)
 .comment       0x0000000000000889       0x55 ./build/sdklib/libphy.a(phy_chip_v5_cal_romfunc.o)
 .comment       0x00000000000008de       0x45 ./build/sdklib/libpp.a(esf_buf.o)
 .comment       0x0000000000000923       0x47 ./build/sdklib/libpp.a(if_hwctrl.o)
 .comment       0x000000000000096a       0x42 ./build/sdklib/libpp.a(lmac.o)
 .comment       0x00000000000009ac       0x40 ./build/sdklib/libpp.a(pm.o)
 .comment       0x00000000000009ec       0x40 ./build/sdklib/libpp.a(pp.o)
 .comment       0x0000000000000a2c       0x4a ./build/sdklib/libpp.a(rate_control.o)
 .comment       0x0000000000000a76       0x41 ./build/sdklib/libpp.a(trc.o)
 .comment       0x0000000000000ab7       0x42 ./build/sdklib/libpp.a(wdev.o)
 .comment       0x0000000000000af9       0x47 ./build/sdklib/libwpa.a(ap_config.o)
 .comment       0x0000000000000b40       0x44 ./build/sdklib/libwpa.a(common.o)
 .comment       0x0000000000000b84       0x47 ./build/sdklib/libwpa.a(os_xtensa.o)
 .comment       0x0000000000000bcb       0x49 ./build/sdklib/libwpa.a(sha1-pbkdf2.o)
 .comment       0x0000000000000c14       0x46 ./build/sdklib/libwpa.a(wpa_auth.o)
 .comment       0x0000000000000c5a       0x49 ./build/sdklib/libwpa.a(wpa_auth_ie.o)
 .comment       0x0000000000000ca3       0x41 ./build/sdklib/libwpa.a(wpa.o)
 .comment       0x0000000000000ce4       0x48 ./build/sdklib/libwpa.a(wpa_common.o)
 .comment       0x0000000000000d2c       0x47 ./build/sdklib/libwpa.a(wpa_debug.o)
 .comment       0x0000000000000d73       0x44 ./build/sdklib/libwpa.a(wpa_ie.o)
 .comment       0x0000000000000db7       0x46 ./build/sdklib/libwpa.a(wpa_main.o)
 .comment       0x0000000000000dfd       0x47 ./build/sdklib/libwpa.a(wpas_glue.o)
 .comment       0x0000000000000e44       0x48 ./build/sdklib/libwpa.a(aes-unwrap.o)
 .comment       0x0000000000000e8c       0x46 ./build/sdklib/libwpa.a(aes-wrap.o)
 .comment       0x0000000000000ed2       0x41 ./build/sdklib/libwpa.a(md5.o)
 .comment       0x0000000000000f13       0x4a ./build/sdklib/libwpa.a(md5-internal.o)
 .comment       0x0000000000000f5d       0x41 ./build/sdklib/libwpa.a(rc4.o)
 .comment       0x0000000000000f9e       0x42 ./build/sdklib/libwpa.a(sha1.o)
 .comment       0x0000000000000fe0       0x4b ./build/sdklib/libwpa.a(sha1-internal.o)
 .comment       0x000000000000102b       0x4e ./build/sdklib/libwpa.a(aes-internal-dec.o)
 .comment       0x0000000000001079       0x4e ./build/sdklib/libwpa.a(aes-internal-enc.o)
 .comment       0x00000000000010c7       0x4a ./build/sdklib/libwpa.a(aes-internal.o)
 .comment       0x0000000000000000       0x22 ./build/program.a(simple.o)
 .comment       0x0000000000000000       0x22 ./build/freertos.a(queue.o)
 .comment       0x0000000000000000       0x22 ./build/freertos.a(list.o)
 .comment       0x0000000000000000       0x22 ./build/freertos.a(tasks.o)
 .comment       0x0000000000000000       0x22 ./build/freertos.a(timers.o)
 .comment       0x0000000000000000       0x22 ./build/freertos.a(port.o)
 .comment       0x0000000000000000       0x22 ./build/lwip.a(esp_interface.o)
 .comment       0x0000000000000000       0x22 ./build/lwip.a(tcpip.o)
 .comment       0x0000000000000000       0x22 ./build/lwip.a(dhcp.o)
 .comment       0x0000000000000000       0x22 ./build/lwip.a(init.o)
 .comment       0x0000000000000000       0x22 ./build/lwip.a(memp.o)
 .comment       0x0000000000000000       0x22 ./build/lwip.a(dns.o)
 .comment       0x0000000000000000       0x22 ./build/lwip.a(tcp.o)
 .comment       0x0000000000000000       0x22 ./build/lwip.a(pbuf.o)
 .comment       0x0000000000000000       0x22 ./build/lwip.a(netif.o)
 .comment       0x0000000000000000       0x22 ./build/lwip.a(stats.o)
 .comment       0x0000000000000000       0x22 ./build/lwip.a(timers.o)
 .comment       0x0000000000000000       0x22 ./build/lwip.a(udp.o)
 .comment       0x0000000000000000       0x22 ./build/lwip.a(tcp_out.o)
 .comment       0x0000000000000000       0x22 ./build/lwip.a(ip_addr.o)
 .comment       0x0000000000000000       0x22 ./build/lwip.a(ip.o)
 .comment       0x0000000000000000       0x22 ./build/lwip.a(inet_chksum.o)
 .comment       0x0000000000000000       0x22 ./build/lwip.a(icmp.o)
 .comment       0x0000000000000000       0x22 ./build/lwip.a(etharp.o)
 .comment       0x0000000000000000       0x22 ./build/lwip.a(sys_arch.o)
 .comment       0x0000000000000000       0x22 ./build/lwip.a(sockets.o)
 .comment       0x0000000000000000       0x22 ./build/lwip.a(tcp_in.o)
 .comment       0x0000000000000000       0x22 ./build/lwip.a(raw.o)
 .comment       0x0000000000000000       0x22 ./build/lwip.a(ip_frag.o)
 .comment       0x0000000000000000       0x22 ./build/lwip.a(api_lib.o)
 .comment       0x0000000000000000       0x22 ./build/lwip.a(netbuf.o)
 .comment       0x0000000000000000       0x22 ./build/lwip.a(api_msg.o)
 .comment       0x0000000000000000       0x22 ./build/core.a(sdk_compat.o)
 .comment       0x0000000000000000       0x22 ./build/core.a(newlib_syscalls.o)
 .comment       0x0000000000000000       0x22 /home/olga/esp/esp-open-sdk/xtensa-lx106-elf/lib/gcc/xtensa-lx106-elf/4.8.2/libgcc.a(_muldi3.o)
 .comment       0x0000000000000000       0x22 /home/olga/esp/esp-open-sdk/xtensa-lx106-elf/lib/gcc/xtensa-lx106-elf/4.8.2/libgcc.a(_popcountsi2.o)
 .comment       0x0000000000000000       0x22 /home/olga/esp/esp-open-sdk/xtensa-lx106-elf/lib/gcc/xtensa-lx106-elf/4.8.2/libgcc.a(_divdi3.o)
 .comment       0x0000000000000000       0x22 /home/olga/esp/esp-open-sdk/xtensa-lx106-elf/lib/gcc/xtensa-lx106-elf/4.8.2/libgcc.a(_umoddi3.o)
 .comment       0x0000000000000000       0x22 /home/olga/esp/esp-open-sdk/xtensa-lx106-elf/lib/gcc/xtensa-lx106-elf/4.8.2/libgcc.a(_popcount_tab.o)
 .comment       0x0000000000000000       0x22 ../../libc/xtensa-lx106-elf/lib/libc.a(lib_a-bzero.o)
 .comment       0x0000000000000000       0x22 ../../libc/xtensa-lx106-elf/lib/libc.a(lib_a-calloc.o)
 .comment       0x0000000000000000       0x22 ../../libc/xtensa-lx106-elf/lib/libc.a(lib_a-memcmp.o)
 .comment       0x0000000000000000       0x22 ../../libc/xtensa-lx106-elf/lib/libc.a(lib_a-mstats.o)
 .comment       0x0000000000000000       0x22 ../../libc/xtensa-lx106-elf/lib/libc.a(lib_a-nano-callocr.o)
 .comment       0x0000000000000000       0x22 ../../libc/xtensa-lx106-elf/lib/libc.a(lib_a-nano-mallinfor.o)
 .comment       0x0000000000000000       0x22 ../../libc/xtensa-lx106-elf/lib/libc.a(lib_a-nano-malloptr.o)
 .comment       0x0000000000000000       0x22 ../../libc/xtensa-lx106-elf/lib/libc.a(lib_a-nano-mallstatsr.o)
 .comment       0x0000000000000000       0x22 ../../libc/xtensa-lx106-elf/lib/libc.a(lib_a-rand.o)
 .comment       0x0000000000000000       0x22 ../../libc/xtensa-lx106-elf/lib/libc.a(lib_a-sprintf.o)
 .comment       0x0000000000000000       0x22 ../../libc/xtensa-lx106-elf/lib/libc.a(lib_a-strncmp.o)
 .comment       0x0000000000000000       0x22 ../../libc/xtensa-lx106-elf/lib/libc.a(lib_a-strrchr.o)
 .comment       0x0000000000000000       0x22 ../../libc/xtensa-lx106-elf/lib/libc.a(lib_a-syssbrk.o)
 .comment       0x0000000000000000       0x22 ../../libc/xtensa-lx106-elf/lib/libc.a(lib_a-fprintf.o)
 .comment       0x0000000000000000       0x22 ../../libc/xtensa-lx106-elf/lib/libc.a(lib_a-nano-svfprintf.o)
 .comment       0x0000000000000000       0x22 ../../libc/xtensa-lx106-elf/lib/libc.a(lib_a-strchr.o)
 .comment       0x0000000000001111       0x53 ./build/sdklib/libnet80211.a(ieee80211_crypto_ccmp.o)
 .comment       0x0000000000001164       0x53 ./build/sdklib/libnet80211.a(ieee80211_crypto_tkip.o)
 .comment       0x00000000000011b7       0x52 ./build/sdklib/libnet80211.a(ieee80211_crypto_wep.o)

.xt.lit         0x0000000000000000     0x1150
 .xt.lit        0x0000000000000000       0x50 ./build/core.a(app_main.o)
 .xt.lit        0x0000000000000050        0x8 ../../libc/xtensa-lx106-elf/lib/libc.a(lib_a-malloc.o)
 .xt.lit        0x0000000000000058        0x0 ../../libc/xtensa-lx106-elf/lib/libc.a(lib_a-nano-freer.o)
                                          0x8 (size before relaxing)
 .xt.lit        0x0000000000000058        0x8 ../../libc/xtensa-lx106-elf/lib/libc.a(lib_a-nano-mallocr.o)
 .xt.lit        0x0000000000000060        0x0 ../../libc/xtensa-lx106-elf/lib/libc.a(lib_a-printf.o)
                                          0x8 (size before relaxing)
 .xt.lit        0x0000000000000060        0x8 ../../libc/xtensa-lx106-elf/lib/libc.a(lib_a-putchar.o)
 .xt.lit        0x0000000000000068        0x8 ../../libc/xtensa-lx106-elf/lib/libc.a(lib_a-putc.o)
 .xt.lit        0x0000000000000070        0x8 ../../libc/xtensa-lx106-elf/lib/libc.a(lib_a-puts.o)
 .xt.lit        0x0000000000000078        0x8 ../../libc/xtensa-lx106-elf/lib/libc.a(lib_a-strlen.o)
 .xt.lit        0x0000000000000080        0x0 ../../libc/xtensa-lx106-elf/lib/libc.a(lib_a-wbuf.o)
                                          0x8 (size before relaxing)
 .xt.lit        0x0000000000000080        0x8 ../../libc/xtensa-lx106-elf/lib/libc.a(lib_a-wsetup.o)
 .xt.lit        0x0000000000000088        0x8 ../../libc/xtensa-lx106-elf/lib/libc.a(lib_a-fflush.o)
 .xt.lit        0x0000000000000090        0x8 ../../libc/xtensa-lx106-elf/lib/libc.a(lib_a-findfp.o)
 .xt.lit        0x0000000000000098        0x8 ../../libc/xtensa-lx106-elf/lib/libc.a(lib_a-fvwrite.o)
 .xt.lit        0x00000000000000a0        0x8 ../../libc/xtensa-lx106-elf/lib/libc.a(lib_a-makebuf.o)
 .xt.lit        0x00000000000000a8        0x0 ../../libc/xtensa-lx106-elf/lib/libc.a(lib_a-nano-reallocr.o)
                                          0x8 (size before relaxing)
 .xt.lit        0x00000000000000a8        0x8 ../../libc/xtensa-lx106-elf/lib/libc.a(lib_a-nano-vfprintf.o)
 .xt.lit        0x00000000000000b0        0x8 ../../libc/xtensa-lx106-elf/lib/libc.a(lib_a-stdio.o)
 .xt.lit        0x00000000000000b8        0x0 ../../libc/xtensa-lx106-elf/lib/libc.a(isatty.o)
                                          0x8 (size before relaxing)
 .xt.lit        0x00000000000000b8        0x8 ../../libc/xtensa-lx106-elf/lib/libc.a(lib_a-fclose.o)
 .xt.lit        0x00000000000000c0        0x8 ../../libc/xtensa-lx106-elf/lib/libc.a(lib_a-fputwc.o)
 .xt.lit        0x00000000000000c8        0x8 ../../libc/xtensa-lx106-elf/lib/libc.a(lib_a-locale.o)
 .xt.lit        0x00000000000000d0        0x8 ../../libc/xtensa-lx106-elf/lib/libc.a(lib_a-nano-vfprintf_i.o)
 .xt.lit        0x00000000000000d8        0x8 ../../libc/xtensa-lx106-elf/lib/libc.a(lib_a-strcmp.o)
 .xt.lit        0x00000000000000e0        0x8 ../../libc/xtensa-lx106-elf/lib/libc.a(lib_a-wcrtomb.o)
 .xt.lit        0x00000000000000e8        0x0 ../../libc/xtensa-lx106-elf/lib/libc.a(lib_a-wctomb_r.o)
                                          0x8 (size before relaxing)
 .xt.lit        0x00000000000000e8       0x38 ./build/sdklib/libmain.a(ets_timer.o)
                                         0x60 (size before relaxing)
 .xt.lit        0x0000000000000120       0x28 ./build/sdklib/libmain.a(misc.o)
                                         0x38 (size before relaxing)
 .xt.lit        0x0000000000000148       0x38 ./build/sdklib/libmain.a(spi_flash.o)
                                         0x50 (size before relaxing)
 .xt.lit        0x0000000000000180        0x8 ./build/sdklib/libmain.a(uart.o)
 .xt.lit        0x0000000000000188      0x160 ./build/sdklib/libmain.a(user_interface.o)
                                        0x290 (size before relaxing)
 .xt.lit        0x00000000000002e8        0x8 ./build/sdklib/libmain.a(os_cpu_a.o)
                                         0x10 (size before relaxing)
 .xt.lit        0x00000000000002f0       0x18 ./build/sdklib/libmain.a(timers.o)
 .xt.lit        0x0000000000000308       0x20 ./build/sdklib/libnet80211.a(ieee80211.o)
                                         0x30 (size before relaxing)
 .xt.lit        0x0000000000000328        0x0 ./build/sdklib/libnet80211.a(ieee80211_crypto.o)
                                         0x10 (size before relaxing)
 .xt.lit        0x0000000000000328       0x50 ./build/sdklib/libnet80211.a(ieee80211_hostap.o)
                                         0x70 (size before relaxing)
 .xt.lit        0x0000000000000378       0x48 ./build/sdklib/libnet80211.a(ieee80211_ht.o)
                                         0x68 (size before relaxing)
 .xt.lit        0x00000000000003c0       0x20 ./build/sdklib/libnet80211.a(ieee80211_input.o)
                                         0x58 (size before relaxing)
 .xt.lit        0x00000000000003e0       0x38 ./build/sdklib/libnet80211.a(ieee80211_output.o)
                                         0x80 (size before relaxing)
 .xt.lit        0x0000000000000418       0x10 ./build/sdklib/libnet80211.a(ieee80211_phy.o)
                                         0x38 (size before relaxing)
 .xt.lit        0x0000000000000428        0x8 ./build/sdklib/libnet80211.a(ieee80211_power.o)
                                         0x18 (size before relaxing)
 .xt.lit        0x0000000000000430       0x18 ./build/sdklib/libnet80211.a(ieee80211_proto.o)
                                         0x20 (size before relaxing)
 .xt.lit        0x0000000000000448       0x40 ./build/sdklib/libnet80211.a(ieee80211_scan.o)
                                         0xd8 (size before relaxing)
 .xt.lit        0x0000000000000488        0x8 ./build/sdklib/libnet80211.a(ieee80211_sta.o)
                                         0x50 (size before relaxing)
 .xt.lit        0x0000000000000490       0x20 ./build/sdklib/libnet80211.a(wl_chm.o)
                                         0x60 (size before relaxing)
 .xt.lit        0x00000000000004b0       0x90 ./build/sdklib/libnet80211.a(wl_cnx.o)
                                         0xf0 (size before relaxing)
 .xt.lit        0x0000000000000540       0x20 ./build/sdklib/libnet80211.a(ieee80211_action.o)
                                         0x30 (size before relaxing)
 .xt.lit        0x0000000000000560        0x0 ./build/sdklib/libnet80211.a(ieee80211_ets.o)
                                          0x8 (size before relaxing)
 .xt.lit        0x0000000000000560       0x18 ./build/sdklib/libphy.a(phy.o)
                                         0x60 (size before relaxing)
 .xt.lit        0x0000000000000578       0x88 ./build/sdklib/libphy.a(phy_chip_v6_ana.o)
                                         0xb0 (size before relaxing)
 .xt.lit        0x0000000000000600       0xf0 ./build/sdklib/libphy.a(phy_chip_v6.o)
                                        0x188 (size before relaxing)
 .xt.lit        0x00000000000006f0       0x70 ./build/sdklib/libphy.a(phy_chip_v6_cal.o)
                                         0xe0 (size before relaxing)
 .xt.lit        0x0000000000000760       0x20 ./build/sdklib/libphy.a(phy_chip_v6_unused.o)
                                         0x28 (size before relaxing)
 .xt.lit        0x0000000000000780       0x70 ./build/sdklib/libphy.a(phy_sleep.o)
                                         0xd0 (size before relaxing)
 .xt.lit        0x00000000000007f0       0x38 ./build/sdklib/libphy.a(phy_chip_v5_romfunc.o)
                                         0xd8 (size before relaxing)
 .xt.lit        0x0000000000000828       0x30 ./build/sdklib/libphy.a(phy_chip_v5_ana_romfunc.o)
                                         0xd8 (size before relaxing)
 .xt.lit        0x0000000000000858       0x30 ./build/sdklib/libphy.a(phy_chip_v5_cal_romfunc.o)
                                         0x58 (size before relaxing)
 .xt.lit        0x0000000000000888       0x18 ./build/sdklib/libpp.a(esf_buf.o)
                                         0x20 (size before relaxing)
 .xt.lit        0x00000000000008a0       0x30 ./build/sdklib/libpp.a(if_hwctrl.o)
                                         0x90 (size before relaxing)
 .xt.lit        0x00000000000008d0       0x58 ./build/sdklib/libpp.a(lmac.o)
                                        0x108 (size before relaxing)
 .xt.lit        0x0000000000000928       0xe8 ./build/sdklib/libpp.a(pm.o)
                                        0x170 (size before relaxing)
 .xt.lit        0x0000000000000a10       0xd0 ./build/sdklib/libpp.a(pp.o)
                                        0x190 (size before relaxing)
 .xt.lit        0x0000000000000ae0       0x18 ./build/sdklib/libpp.a(rate_control.o)
                                         0x38 (size before relaxing)
 .xt.lit        0x0000000000000af8       0x58 ./build/sdklib/libpp.a(trc.o)
                                         0x90 (size before relaxing)
 .xt.lit        0x0000000000000b50       0xe0 ./build/sdklib/libpp.a(wdev.o)
                                        0x198 (size before relaxing)
 .xt.lit        0x0000000000000c30       0x10 ./build/sdklib/libwpa.a(ap_config.o)
                                         0x40 (size before relaxing)
 .xt.lit        0x0000000000000c40        0x8 ./build/sdklib/libwpa.a(common.o)
                                         0x10 (size before relaxing)
 .xt.lit        0x0000000000000c48        0x8 ./build/sdklib/libwpa.a(os_xtensa.o)
                                         0x10 (size before relaxing)
 .xt.lit        0x0000000000000c50        0x0 ./build/sdklib/libwpa.a(sha1-pbkdf2.o)
                                         0x10 (size before relaxing)
 .xt.lit        0x0000000000000c50       0x70 ./build/sdklib/libwpa.a(wpa_auth.o)
                                        0x100 (size before relaxing)
 .xt.lit        0x0000000000000cc0        0x8 ./build/sdklib/libwpa.a(wpa_auth_ie.o)
                                         0x38 (size before relaxing)
 .xt.lit        0x0000000000000cc8       0x40 ./build/sdklib/libwpa.a(wpa.o)
                                        0x110 (size before relaxing)
 .xt.lit        0x0000000000000d08       0x20 ./build/sdklib/libwpa.a(wpa_common.o)
                                         0x58 (size before relaxing)
 .xt.lit        0x0000000000000d28        0x0 ./build/sdklib/libwpa.a(wpa_ie.o)
                                         0x18 (size before relaxing)
 .xt.lit        0x0000000000000d28       0x10 ./build/sdklib/libwpa.a(wpa_main.o)
                                         0x48 (size before relaxing)
 .xt.lit        0x0000000000000d38        0x0 ./build/sdklib/libwpa.a(wpas_glue.o)
                                         0x10 (size before relaxing)
 .xt.lit        0x0000000000000d38        0x0 ./build/sdklib/libwpa.a(aes-unwrap.o)
                                          0x8 (size before relaxing)
 .xt.lit        0x0000000000000d38        0x0 ./build/sdklib/libwpa.a(aes-wrap.o)
                                          0x8 (size before relaxing)
 .xt.lit        0x0000000000000d38        0x0 ./build/sdklib/libwpa.a(md5.o)
                                          0x8 (size before relaxing)
 .xt.lit        0x0000000000000d38       0x10 ./build/sdklib/libwpa.a(md5-internal.o)
                                         0x20 (size before relaxing)
 .xt.lit        0x0000000000000d48        0x0 ./build/sdklib/libwpa.a(sha1.o)
                                         0x10 (size before relaxing)
 .xt.lit        0x0000000000000d48       0x18 ./build/sdklib/libwpa.a(sha1-internal.o)
                                         0x20 (size before relaxing)
 .xt.lit        0x0000000000000d60       0x18 ./build/sdklib/libwpa.a(aes-internal-dec.o)
                                         0x20 (size before relaxing)
 .xt.lit        0x0000000000000d78        0x0 ./build/sdklib/libwpa.a(aes-internal-enc.o)
                                         0x18 (size before relaxing)
 .xt.lit        0x0000000000000d78        0x8 ./build/sdklib/libwpa.a(aes-internal.o)
 .xt.lit        0x0000000000000d80       0x18 ./build/program.a(simple.o)
 .xt.lit        0x0000000000000d98       0x20 ./build/freertos.a(queue.o)
                                         0x68 (size before relaxing)
 .xt.lit        0x0000000000000db8       0x60 ./build/freertos.a(tasks.o)
                                        0x110 (size before relaxing)
 .xt.lit        0x0000000000000e18       0x20 ./build/freertos.a(timers.o)
                                         0x48 (size before relaxing)
 .xt.lit        0x0000000000000e38       0x30 ./build/freertos.a(port.o)
                                         0x50 (size before relaxing)
 .xt.lit        0x0000000000000e68       0x18 ./build/lwip.a(esp_interface.o)
 .xt.lit        0x0000000000000e80       0x20 ./build/lwip.a(tcpip.o)
                                         0x68 (size before relaxing)
 .xt.lit        0x0000000000000ea0       0x30 ./build/lwip.a(dhcp.o)
                                         0xa0 (size before relaxing)
 .xt.lit        0x0000000000000ed0        0x0 ./build/lwip.a(init.o)
                                          0x8 (size before relaxing)
 .xt.lit        0x0000000000000ed0       0x20 ./build/lwip.a(dns.o)
                                         0x40 (size before relaxing)
 .xt.lit        0x0000000000000ef0       0x58 ./build/lwip.a(tcp.o)
                                         0xb0 (size before relaxing)
 .xt.lit        0x0000000000000f48       0x10 ./build/lwip.a(pbuf.o)
                                         0x48 (size before relaxing)
 .xt.lit        0x0000000000000f58       0x10 ./build/lwip.a(netif.o)
                                         0x40 (size before relaxing)
 .xt.lit        0x0000000000000f68       0x18 ./build/lwip.a(timers.o)
                                         0x50 (size before relaxing)
 .xt.lit        0x0000000000000f80       0x10 ./build/lwip.a(udp.o)
                                         0x38 (size before relaxing)
 .xt.lit        0x0000000000000f90       0x10 ./build/lwip.a(tcp_out.o)
                                         0x50 (size before relaxing)
 .xt.lit        0x0000000000000fa0       0x10 ./build/lwip.a(ip_addr.o)
                                         0x20 (size before relaxing)
 .xt.lit        0x0000000000000fb0       0x10 ./build/lwip.a(ip.o)
                                         0x20 (size before relaxing)
 .xt.lit        0x0000000000000fc0        0x0 ./build/lwip.a(inet_chksum.o)
                                          0x8 (size before relaxing)
 .xt.lit        0x0000000000000fc0        0x0 ./build/lwip.a(icmp.o)
                                         0x10 (size before relaxing)
 .xt.lit        0x0000000000000fc0       0x20 ./build/lwip.a(etharp.o)
                                         0x58 (size before relaxing)
 .xt.lit        0x0000000000000fe0        0x8 ./build/lwip.a(sys_arch.o)
                                         0x90 (size before relaxing)
 .xt.lit        0x0000000000000fe8       0x40 ./build/lwip.a(sockets.o)
                                         0xa8 (size before relaxing)
 .xt.lit        0x0000000000001028       0x10 ./build/lwip.a(tcp_in.o)
                                         0x18 (size before relaxing)
 .xt.lit        0x0000000000001038        0x8 ./build/lwip.a(raw.o)
                                         0x20 (size before relaxing)
 .xt.lit        0x0000000000001040        0x0 ./build/lwip.a(ip_frag.o)
                                          0x8 (size before relaxing)
 .xt.lit        0x0000000000001040       0x60 ./build/lwip.a(api_lib.o)
                                         0x78 (size before relaxing)
 .xt.lit        0x00000000000010a0        0x0 ./build/lwip.a(netbuf.o)
                                         0x30 (size before relaxing)
 .xt.lit        0x00000000000010a0       0x30 ./build/lwip.a(api_msg.o)
                                         0xd8 (size before relaxing)
 .xt.lit        0x00000000000010d0       0x10 ./build/core.a(sdk_compat.o)
 .xt.lit        0x00000000000010e0        0x8 ./build/core.a(newlib_syscalls.o)
                                         0x18 (size before relaxing)
 .xt.lit        0x00000000000010e8        0x8 /home/olga/esp/esp-open-sdk/xtensa-lx106-elf/lib/gcc/xtensa-lx106-elf/4.8.2/libgcc.a(_addsubsf3.o)
 .xt.lit        0x00000000000010f0        0x8 /home/olga/esp/esp-open-sdk/xtensa-lx106-elf/lib/gcc/xtensa-lx106-elf/4.8.2/libgcc.a(_mulsf3.o)
 .xt.lit        0x00000000000010f8        0x0 /home/olga/esp/esp-open-sdk/xtensa-lx106-elf/lib/gcc/xtensa-lx106-elf/4.8.2/libgcc.a(_divsf3.o)
                                          0x8 (size before relaxing)
 .xt.lit        0x00000000000010f8        0x0 /home/olga/esp/esp-open-sdk/xtensa-lx106-elf/lib/gcc/xtensa-lx106-elf/4.8.2/libgcc.a(_fixsfsi.o)
                                          0x8 (size before relaxing)
 .xt.lit        0x00000000000010f8        0x0 /home/olga/esp/esp-open-sdk/xtensa-lx106-elf/lib/gcc/xtensa-lx106-elf/4.8.2/libgcc.a(_fixunssfsi.o)
                                          0x8 (size before relaxing)
 .xt.lit        0x00000000000010f8        0x8 /home/olga/esp/esp-open-sdk/xtensa-lx106-elf/lib/gcc/xtensa-lx106-elf/4.8.2/libgcc.a(_addsubdf3.o)
 .xt.lit        0x0000000000001100        0x8 /home/olga/esp/esp-open-sdk/xtensa-lx106-elf/lib/gcc/xtensa-lx106-elf/4.8.2/libgcc.a(_muldf3.o)
 .xt.lit        0x0000000000001108        0x0 /home/olga/esp/esp-open-sdk/xtensa-lx106-elf/lib/gcc/xtensa-lx106-elf/4.8.2/libgcc.a(_divdf3.o)
                                          0x8 (size before relaxing)
 .xt.lit        0x0000000000001108        0x0 /home/olga/esp/esp-open-sdk/xtensa-lx106-elf/lib/gcc/xtensa-lx106-elf/4.8.2/libgcc.a(_fixdfsi.o)
                                          0x8 (size before relaxing)
 .xt.lit        0x0000000000001108        0x8 /home/olga/esp/esp-open-sdk/xtensa-lx106-elf/lib/gcc/xtensa-lx106-elf/4.8.2/libgcc.a(_truncdfsf2.o)
 .xt.lit        0x0000000000001110        0x0 /home/olga/esp/esp-open-sdk/xtensa-lx106-elf/lib/gcc/xtensa-lx106-elf/4.8.2/libgcc.a(_extendsfdf2.o)
                                          0x8 (size before relaxing)
 .xt.lit        0x0000000000001110        0x0 /home/olga/esp/esp-open-sdk/xtensa-lx106-elf/lib/gcc/xtensa-lx106-elf/4.8.2/libgcc.a(_muldi3.o)
                                          0x8 (size before relaxing)
 .xt.lit        0x0000000000001110        0x8 /home/olga/esp/esp-open-sdk/xtensa-lx106-elf/lib/gcc/xtensa-lx106-elf/4.8.2/libgcc.a(_popcountsi2.o)
 .xt.lit        0x0000000000001118        0x0 /home/olga/esp/esp-open-sdk/xtensa-lx106-elf/lib/gcc/xtensa-lx106-elf/4.8.2/libgcc.a(_divdi3.o)
                                          0x8 (size before relaxing)
 .xt.lit        0x0000000000001118        0x0 /home/olga/esp/esp-open-sdk/xtensa-lx106-elf/lib/gcc/xtensa-lx106-elf/4.8.2/libgcc.a(_umoddi3.o)
                                          0x8 (size before relaxing)
 .xt.lit        0x0000000000001118        0x0 ../../libc/xtensa-lx106-elf/lib/libc.a(lib_a-calloc.o)
                                          0x8 (size before relaxing)
 .xt.lit        0x0000000000001118        0x8 ../../libc/xtensa-lx106-elf/lib/libc.a(lib_a-mstats.o)
 .xt.lit        0x0000000000001120        0x8 ../../libc/xtensa-lx106-elf/lib/libc.a(lib_a-nano-callocr.o)
 .xt.lit        0x0000000000001128        0x8 ../../libc/xtensa-lx106-elf/lib/libc.a(lib_a-nano-mallinfor.o)
 .xt.lit        0x0000000000001130        0x8 ../../libc/xtensa-lx106-elf/lib/libc.a(lib_a-nano-mallstatsr.o)
 .xt.lit        0x0000000000001138        0x8 ../../libc/xtensa-lx106-elf/lib/libc.a(lib_a-rand.o)
 .xt.lit        0x0000000000001140        0x0 ../../libc/xtensa-lx106-elf/lib/libc.a(lib_a-sprintf.o)
                                          0x8 (size before relaxing)
 .xt.lit        0x0000000000001140        0x0 ../../libc/xtensa-lx106-elf/lib/libc.a(lib_a-strncpy.o)
                                          0x8 (size before relaxing)
 .xt.lit        0x0000000000001140        0x0 ../../libc/xtensa-lx106-elf/lib/libc.a(lib_a-strrchr.o)
                                          0x8 (size before relaxing)
 .xt.lit        0x0000000000001140        0x0 ../../libc/xtensa-lx106-elf/lib/libc.a(lib_a-syssbrk.o)
                                          0x8 (size before relaxing)
 .xt.lit        0x0000000000001140        0x0 ../../libc/xtensa-lx106-elf/lib/libc.a(lib_a-fprintf.o)
                                          0x8 (size before relaxing)
 .xt.lit        0x0000000000001140        0x8 ../../libc/xtensa-lx106-elf/lib/libc.a(lib_a-nano-svfprintf.o)
 .xt.lit        0x0000000000001148        0x0 ./build/sdklib/libnet80211.a(ieee80211_crypto_ccmp.o)
                                          0x8 (size before relaxing)
 .xt.lit        0x0000000000001148        0x8 ./build/sdklib/libnet80211.a(ieee80211_crypto_tkip.o)
                                         0x10 (size before relaxing)
 .xt.lit        0x0000000000001150        0x0 ./build/sdklib/libnet80211.a(ieee80211_crypto_wep.o)
                                          0x8 (size before relaxing)

.xt.prop        0x0000000000000000    0x252e4
 .xt.prop       0x0000000000000000      0x3fc ./build/core.a(app_main.o)
                                        0x408 (size before relaxing)
 .xt.prop       0x00000000000003fc       0x48 ../../libc/xtensa-lx106-elf/lib/libc.a(lib_a-malloc.o)
 .xt.prop       0x0000000000000444      0x174 ../../libc/xtensa-lx106-elf/lib/libc.a(lib_a-memcpy.o)
 .xt.prop       0x00000000000005b8       0xe4 ../../libc/xtensa-lx106-elf/lib/libc.a(lib_a-memset.o)
 .xt.prop       0x000000000000069c       0xd8 ../../libc/xtensa-lx106-elf/lib/libc.a(lib_a-nano-freer.o)
                                         0xe4 (size before relaxing)
 .xt.prop       0x0000000000000774      0x138 ../../libc/xtensa-lx106-elf/lib/libc.a(lib_a-nano-mallocr.o)
 .xt.prop       0x00000000000008ac       0x3c ../../libc/xtensa-lx106-elf/lib/libc.a(lib_a-printf.o)
                                         0x48 (size before relaxing)
 .xt.prop       0x00000000000008e8       0x48 ../../libc/xtensa-lx106-elf/lib/libc.a(lib_a-putchar.o)
 .xt.prop       0x0000000000000930       0xa8 ../../libc/xtensa-lx106-elf/lib/libc.a(lib_a-putc.o)
 .xt.prop       0x00000000000009d8       0x6c ../../libc/xtensa-lx106-elf/lib/libc.a(lib_a-puts.o)
 .xt.prop       0x0000000000000a44       0xb4 ../../libc/xtensa-lx106-elf/lib/libc.a(lib_a-strlen.o)
 .xt.prop       0x0000000000000af8       0x9c ../../libc/xtensa-lx106-elf/lib/libc.a(lib_a-wbuf.o)
                                         0xa8 (size before relaxing)
 .xt.prop       0x0000000000000b94       0xb4 ../../libc/xtensa-lx106-elf/lib/libc.a(lib_a-wsetup.o)
 .xt.prop       0x0000000000000c48       0x3c ../../libc/xtensa-lx106-elf/lib/libc.a(lock.o)
 .xt.prop       0x0000000000000c84      0x1a4 ../../libc/xtensa-lx106-elf/lib/libc.a(lib_a-fflush.o)
 .xt.prop       0x0000000000000e28      0x204 ../../libc/xtensa-lx106-elf/lib/libc.a(lib_a-findfp.o)
                                        0x21c (size before relaxing)
 .xt.prop       0x000000000000102c      0x258 ../../libc/xtensa-lx106-elf/lib/libc.a(lib_a-fvwrite.o)
 .xt.prop       0x0000000000001284       0xb4 ../../libc/xtensa-lx106-elf/lib/libc.a(lib_a-fwalk.o)
 .xt.prop       0x0000000000001338       0x24 ../../libc/xtensa-lx106-elf/lib/libc.a(lib_a-impure.o)
 .xt.prop       0x000000000000135c       0xa8 ../../libc/xtensa-lx106-elf/lib/libc.a(lib_a-makebuf.o)
 .xt.prop       0x0000000000001404       0x48 ../../libc/xtensa-lx106-elf/lib/libc.a(lib_a-memchr.o)
 .xt.prop       0x000000000000144c       0x78 ../../libc/xtensa-lx106-elf/lib/libc.a(lib_a-memmove.o)
 .xt.prop       0x00000000000014c4       0x60 ../../libc/xtensa-lx106-elf/lib/libc.a(lib_a-nano-reallocr.o)
                                         0x6c (size before relaxing)
 .xt.prop       0x0000000000001524      0x330 ../../libc/xtensa-lx106-elf/lib/libc.a(lib_a-nano-vfprintf.o)
 .xt.prop       0x0000000000001854       0xcc ../../libc/xtensa-lx106-elf/lib/libc.a(lib_a-stdio.o)
 .xt.prop       0x0000000000001920       0x3c ../../libc/xtensa-lx106-elf/lib/libc.a(isatty.o)
                                         0x48 (size before relaxing)
 .xt.prop       0x000000000000195c       0xc0 ../../libc/xtensa-lx106-elf/lib/libc.a(lib_a-fclose.o)
 .xt.prop       0x0000000000001a1c      0x144 ../../libc/xtensa-lx106-elf/lib/libc.a(lib_a-fputwc.o)
 .xt.prop       0x0000000000001b60      0x114 ../../libc/xtensa-lx106-elf/lib/libc.a(lib_a-locale.o)
 .xt.prop       0x0000000000001c74       0x30 ../../libc/xtensa-lx106-elf/lib/libc.a(lib_a-nano-msizer.o)
 .xt.prop       0x0000000000001ca4      0x510 ../../libc/xtensa-lx106-elf/lib/libc.a(lib_a-nano-vfprintf_i.o)
 .xt.prop       0x00000000000021b4      0x108 ../../libc/xtensa-lx106-elf/lib/libc.a(lib_a-strcmp.o)
 .xt.prop       0x00000000000022bc       0x6c ../../libc/xtensa-lx106-elf/lib/libc.a(lib_a-wcrtomb.o)
 .xt.prop       0x0000000000002328       0x78 ../../libc/xtensa-lx106-elf/lib/libc.a(lib_a-wctomb_r.o)
                                         0x84 (size before relaxing)
 .xt.prop       0x00000000000023a0      0x3d8 ./build/sdklib/libmain.a(ets_timer.o)
                                        0x438 (size before relaxing)
 .xt.prop       0x0000000000002778      0x120 ./build/sdklib/libmain.a(misc.o)
                                        0x138 (size before relaxing)
 .xt.prop       0x0000000000002898      0x2a0 ./build/sdklib/libmain.a(spi_flash.o)
                                        0x2ac (size before relaxing)
 .xt.prop       0x0000000000002b38       0x60 ./build/sdklib/libmain.a(uart.o)
                                         0x6c (size before relaxing)
 .xt.prop       0x0000000000002b98     0x1bfc ./build/sdklib/libmain.a(user_interface.o)
                                       0x1cd4 (size before relaxing)
 .xt.prop       0x0000000000004794      0x108 ./build/sdklib/libmain.a(os_cpu_a.o)
                                        0x114 (size before relaxing)
 .xt.prop       0x000000000000489c       0x30 ./build/sdklib/libmain.a(xtensa_context.o)
 .xt.prop       0x00000000000048cc       0xe4 ./build/sdklib/libmain.a(timers.o)
                                         0xfc (size before relaxing)
 .xt.prop       0x00000000000049b0      0x2b8 ./build/sdklib/libnet80211.a(ieee80211.o)
                                        0x2dc (size before relaxing)
 .xt.prop       0x0000000000004c68      0x108 ./build/sdklib/libnet80211.a(ieee80211_crypto.o)
                                        0x114 (size before relaxing)
 .xt.prop       0x0000000000004d70      0x8c4 ./build/sdklib/libnet80211.a(ieee80211_hostap.o)
                                        0x924 (size before relaxing)
 .xt.prop       0x0000000000005634      0x60c ./build/sdklib/libnet80211.a(ieee80211_ht.o)
 .xt.prop       0x0000000000005c40      0x78c ./build/sdklib/libnet80211.a(ieee80211_input.o)
 .xt.prop       0x00000000000063cc      0xa68 ./build/sdklib/libnet80211.a(ieee80211_output.o)
                                        0xa74 (size before relaxing)
 .xt.prop       0x0000000000006e34      0x24c ./build/sdklib/libnet80211.a(ieee80211_phy.o)
 .xt.prop       0x0000000000007080      0x168 ./build/sdklib/libnet80211.a(ieee80211_power.o)
                                        0x174 (size before relaxing)
 .xt.prop       0x00000000000071e8      0x1f8 ./build/sdklib/libnet80211.a(ieee80211_proto.o)
                                        0x204 (size before relaxing)
 .xt.prop       0x00000000000073e0      0x9e4 ./build/sdklib/libnet80211.a(ieee80211_scan.o)
                                        0xa5c (size before relaxing)
 .xt.prop       0x0000000000007dc4      0x810 ./build/sdklib/libnet80211.a(ieee80211_sta.o)
 .xt.prop       0x00000000000085d4      0x2e8 ./build/sdklib/libnet80211.a(wl_chm.o)
                                        0x2f4 (size before relaxing)
 .xt.prop       0x00000000000088bc      0xc18 ./build/sdklib/libnet80211.a(wl_cnx.o)
                                        0xc48 (size before relaxing)
 .xt.prop       0x00000000000094d4      0x2e8 ./build/sdklib/libnet80211.a(ieee80211_action.o)
                                        0x2f4 (size before relaxing)
 .xt.prop       0x00000000000097bc       0x54 ./build/sdklib/libnet80211.a(ieee80211_ets.o)
 .xt.prop       0x0000000000009810      0x1b0 ./build/sdklib/libphy.a(phy.o)
                                        0x1bc (size before relaxing)
 .xt.prop       0x00000000000099c0      0xb4c ./build/sdklib/libphy.a(phy_chip_v6_ana.o)
 .xt.prop       0x000000000000a50c     0x1860 ./build/sdklib/libphy.a(phy_chip_v6.o)
                                       0x19e0 (size before relaxing)
 .xt.prop       0x000000000000bd6c      0xfb4 ./build/sdklib/libphy.a(phy_chip_v6_cal.o)
                                        0xffc (size before relaxing)
 .xt.prop       0x000000000000cd20      0x15c ./build/sdklib/libphy.a(phy_chip_v6_unused.o)
                                        0x168 (size before relaxing)
 .xt.prop       0x000000000000ce7c      0x810 ./build/sdklib/libphy.a(phy_sleep.o)
                                        0x84c (size before relaxing)
 .xt.prop       0x000000000000d68c      0x5d0 ./build/sdklib/libphy.a(phy_chip_v5_romfunc.o)
                                        0x5e8 (size before relaxing)
 .xt.prop       0x000000000000dc5c      0xa08 ./build/sdklib/libphy.a(phy_chip_v5_ana_romfunc.o)
 .xt.prop       0x000000000000e664      0x6f0 ./build/sdklib/libphy.a(phy_chip_v5_cal_romfunc.o)
                                        0x6fc (size before relaxing)
 .xt.prop       0x000000000000ed54      0x318 ./build/sdklib/libpp.a(esf_buf.o)
                                        0x384 (size before relaxing)
 .xt.prop       0x000000000000f06c      0x390 ./build/sdklib/libpp.a(if_hwctrl.o)
                                        0x3a8 (size before relaxing)
 .xt.prop       0x000000000000f3fc     0x10d4 ./build/sdklib/libpp.a(lmac.o)
                                       0x1128 (size before relaxing)
 .xt.prop       0x00000000000104d0      0xff0 ./build/sdklib/libpp.a(pm.o)
                                       0x10c8 (size before relaxing)
 .xt.prop       0x00000000000114c0     0x16d4 ./build/sdklib/libpp.a(pp.o)
                                       0x183c (size before relaxing)
 .xt.prop       0x0000000000012b94      0x1b0 ./build/sdklib/libpp.a(rate_control.o)
                                        0x1d4 (size before relaxing)
 .xt.prop       0x0000000000012d44      0xd14 ./build/sdklib/libpp.a(trc.o)
                                        0xd8c (size before relaxing)
 .xt.prop       0x0000000000013a58     0x1074 ./build/sdklib/libpp.a(wdev.o)
                                       0x114c (size before relaxing)
 .xt.prop       0x0000000000014acc      0x2a0 ./build/sdklib/libwpa.a(ap_config.o)
                                        0x2ac (size before relaxing)
 .xt.prop       0x0000000000014d6c      0x1c8 ./build/sdklib/libwpa.a(common.o)
                                        0x1d4 (size before relaxing)
 .xt.prop       0x0000000000014f34       0x78 ./build/sdklib/libwpa.a(os_xtensa.o)
                                         0x84 (size before relaxing)
 .xt.prop       0x0000000000014fac       0xc0 ./build/sdklib/libwpa.a(sha1-pbkdf2.o)
 .xt.prop       0x000000000001506c     0x1548 ./build/sdklib/libwpa.a(wpa_auth.o)
                                       0x1578 (size before relaxing)
 .xt.prop       0x00000000000165b4      0x414 ./build/sdklib/libwpa.a(wpa_auth_ie.o)
 .xt.prop       0x00000000000169c8      0xbdc ./build/sdklib/libwpa.a(wpa.o)
                                        0xc0c (size before relaxing)
 .xt.prop       0x00000000000175a4      0x720 ./build/sdklib/libwpa.a(wpa_common.o)
                                        0x72c (size before relaxing)
 .xt.prop       0x0000000000017cc4       0x30 ./build/sdklib/libwpa.a(wpa_debug.o)
                                         0x3c (size before relaxing)
 .xt.prop       0x0000000000017cf4      0x348 ./build/sdklib/libwpa.a(wpa_ie.o)
 .xt.prop       0x000000000001803c      0x234 ./build/sdklib/libwpa.a(wpa_main.o)
 .xt.prop       0x0000000000018270      0x108 ./build/sdklib/libwpa.a(wpas_glue.o)
 .xt.prop       0x0000000000018378       0x6c ./build/sdklib/libwpa.a(aes-unwrap.o)
 .xt.prop       0x00000000000183e4       0x60 ./build/sdklib/libwpa.a(aes-wrap.o)
 .xt.prop       0x0000000000018444       0xa8 ./build/sdklib/libwpa.a(md5.o)
 .xt.prop       0x00000000000184ec      0x138 ./build/sdklib/libwpa.a(md5-internal.o)
                                        0x144 (size before relaxing)
 .xt.prop       0x0000000000018624       0x78 ./build/sdklib/libwpa.a(rc4.o)
                                         0x84 (size before relaxing)
 .xt.prop       0x000000000001869c      0x108 ./build/sdklib/libwpa.a(sha1.o)
 .xt.prop       0x00000000000187a4      0x138 ./build/sdklib/libwpa.a(sha1-internal.o)
                                        0x150 (size before relaxing)
 .xt.prop       0x00000000000188dc      0x108 ./build/sdklib/libwpa.a(aes-internal-dec.o)
                                        0x114 (size before relaxing)
 .xt.prop       0x00000000000189e4       0xcc ./build/sdklib/libwpa.a(aes-internal-enc.o)
 .xt.prop       0x0000000000018ab0       0x3c ./build/sdklib/libwpa.a(aes-internal.o)
                                         0x54 (size before relaxing)
 .xt.prop       0x0000000000018aec       0x84 ./build/program.a(simple.o)
                                         0x90 (size before relaxing)
 .xt.prop       0x0000000000018b70      0x6a8 ./build/freertos.a(queue.o)
 .xt.prop       0x0000000000019218       0xd8 ./build/freertos.a(list.o)
 .xt.prop       0x00000000000192f0      0xbd0 ./build/freertos.a(tasks.o)
                                        0xcc0 (size before relaxing)
 .xt.prop       0x0000000000019ec0      0x2dc ./build/freertos.a(timers.o)
                                        0x330 (size before relaxing)
 .xt.prop       0x000000000001a19c      0x258 ./build/freertos.a(port.o)
                                        0x2a0 (size before relaxing)
 .xt.prop       0x000000000001a3f4       0xa8 ./build/lwip.a(esp_interface.o)
 .xt.prop       0x000000000001a49c      0x3cc ./build/lwip.a(tcpip.o)
                                        0x3f0 (size before relaxing)
 .xt.prop       0x000000000001a868      0xb04 ./build/lwip.a(dhcp.o)
 .xt.prop       0x000000000001b36c       0x24 ./build/lwip.a(init.o)
 .xt.prop       0x000000000001b390        0xc ./build/lwip.a(memp.o)
 .xt.prop       0x000000000001b39c      0x378 ./build/lwip.a(dns.o)
                                        0x3d8 (size before relaxing)
 .xt.prop       0x000000000001b714     0x1044 ./build/lwip.a(tcp.o)
                                       0x1080 (size before relaxing)
 .xt.prop       0x000000000001c758      0x738 ./build/lwip.a(pbuf.o)
 .xt.prop       0x000000000001ce90      0x384 ./build/lwip.a(netif.o)
                                        0x390 (size before relaxing)
 .xt.prop       0x000000000001d214       0x24 ./build/lwip.a(stats.o)
 .xt.prop       0x000000000001d238      0x2e8 ./build/lwip.a(timers.o)
                                        0x300 (size before relaxing)
 .xt.prop       0x000000000001d520      0x5a0 ./build/lwip.a(udp.o)
 .xt.prop       0x000000000001dac0      0x7a4 ./build/lwip.a(tcp_out.o)
 .xt.prop       0x000000000001e264      0x330 ./build/lwip.a(ip_addr.o)
                                        0x348 (size before relaxing)
 .xt.prop       0x000000000001e594      0x348 ./build/lwip.a(ip.o)
                                        0x354 (size before relaxing)
 .xt.prop       0x000000000001e8dc      0x1a4 ./build/lwip.a(inet_chksum.o)
 .xt.prop       0x000000000001ea80      0x108 ./build/lwip.a(icmp.o)
 .xt.prop       0x000000000001eb88      0x690 ./build/lwip.a(etharp.o)
                                        0x6b4 (size before relaxing)
 .xt.prop       0x000000000001f218      0x42c ./build/lwip.a(sys_arch.o)
 .xt.prop       0x000000000001f644     0x1614 ./build/lwip.a(sockets.o)
                                       0x165c (size before relaxing)
 .xt.prop       0x0000000000020c58      0x9c0 ./build/lwip.a(tcp_in.o)
                                        0xa44 (size before relaxing)
 .xt.prop       0x0000000000021618      0x294 ./build/lwip.a(raw.o)
                                        0x2a0 (size before relaxing)
 .xt.prop       0x00000000000218ac       0x84 ./build/lwip.a(ip_frag.o)
 .xt.prop       0x0000000000021930      0x54c ./build/lwip.a(api_lib.o)
 .xt.prop       0x0000000000021e7c      0x1d4 ./build/lwip.a(netbuf.o)
 .xt.prop       0x0000000000022050      0xdc8 ./build/lwip.a(api_msg.o)
 .xt.prop       0x0000000000022e18       0x60 ./build/core.a(sdk_compat.o)
 .xt.prop       0x0000000000022e78      0x114 ./build/core.a(newlib_syscalls.o)
                                        0x120 (size before relaxing)
 .xt.prop       0x0000000000022f8c       0x78 /home/olga/esp/esp-open-sdk/xtensa-lx106-elf/xtensa-lx106-elf/sysroot/usr/lib/libhal.a(clock.o)
 .xt.prop       0x0000000000023004       0x24 /home/olga/esp/esp-open-sdk/xtensa-lx106-elf/xtensa-lx106-elf/sysroot/usr/lib/libhal.a(int_asm--set_intset.o)
 .xt.prop       0x0000000000023028       0x9c /home/olga/esp/esp-open-sdk/xtensa-lx106-elf/lib/gcc/xtensa-lx106-elf/4.8.2/libgcc.a(_divsi3.o)
 .xt.prop       0x00000000000230c4       0x84 /home/olga/esp/esp-open-sdk/xtensa-lx106-elf/lib/gcc/xtensa-lx106-elf/4.8.2/libgcc.a(_modsi3.o)
 .xt.prop       0x0000000000023148       0x9c /home/olga/esp/esp-open-sdk/xtensa-lx106-elf/lib/gcc/xtensa-lx106-elf/4.8.2/libgcc.a(_udivsi3.o)
 .xt.prop       0x00000000000231e4       0x78 /home/olga/esp/esp-open-sdk/xtensa-lx106-elf/lib/gcc/xtensa-lx106-elf/4.8.2/libgcc.a(_umodsi3.o)
 .xt.prop       0x000000000002325c       0x3c /home/olga/esp/esp-open-sdk/xtensa-lx106-elf/lib/gcc/xtensa-lx106-elf/4.8.2/libgcc.a(_ashrdi3.o)
 .xt.prop       0x0000000000023298      0x2e8 /home/olga/esp/esp-open-sdk/xtensa-lx106-elf/lib/gcc/xtensa-lx106-elf/4.8.2/libgcc.a(_addsubsf3.o)
 .xt.prop       0x0000000000023580      0x168 /home/olga/esp/esp-open-sdk/xtensa-lx106-elf/lib/gcc/xtensa-lx106-elf/4.8.2/libgcc.a(_mulsf3.o)
 .xt.prop       0x00000000000236e8      0x15c /home/olga/esp/esp-open-sdk/xtensa-lx106-elf/lib/gcc/xtensa-lx106-elf/4.8.2/libgcc.a(_divsf3.o)
                                        0x168 (size before relaxing)
 .xt.prop       0x0000000000023844       0x60 /home/olga/esp/esp-open-sdk/xtensa-lx106-elf/lib/gcc/xtensa-lx106-elf/4.8.2/libgcc.a(_fixsfsi.o)
                                         0x6c (size before relaxing)
 .xt.prop       0x00000000000238a4       0x9c /home/olga/esp/esp-open-sdk/xtensa-lx106-elf/lib/gcc/xtensa-lx106-elf/4.8.2/libgcc.a(_fixunssfsi.o)
                                         0xa8 (size before relaxing)
 .xt.prop       0x0000000000023940       0x60 /home/olga/esp/esp-open-sdk/xtensa-lx106-elf/lib/gcc/xtensa-lx106-elf/4.8.2/libgcc.a(_floatsisf.o)
 .xt.prop       0x00000000000239a0      0x408 /home/olga/esp/esp-open-sdk/xtensa-lx106-elf/lib/gcc/xtensa-lx106-elf/4.8.2/libgcc.a(_addsubdf3.o)
 .xt.prop       0x0000000000023da8      0x294 /home/olga/esp/esp-open-sdk/xtensa-lx106-elf/lib/gcc/xtensa-lx106-elf/4.8.2/libgcc.a(_muldf3.o)
 .xt.prop       0x000000000002403c      0x258 /home/olga/esp/esp-open-sdk/xtensa-lx106-elf/lib/gcc/xtensa-lx106-elf/4.8.2/libgcc.a(_divdf3.o)
                                        0x264 (size before relaxing)
 .xt.prop       0x0000000000024294       0x60 /home/olga/esp/esp-open-sdk/xtensa-lx106-elf/lib/gcc/xtensa-lx106-elf/4.8.2/libgcc.a(_fixdfsi.o)
                                         0x6c (size before relaxing)
 .xt.prop       0x00000000000242f4       0x54 /home/olga/esp/esp-open-sdk/xtensa-lx106-elf/lib/gcc/xtensa-lx106-elf/4.8.2/libgcc.a(_floatsidf.o)
 .xt.prop       0x0000000000024348       0xb4 /home/olga/esp/esp-open-sdk/xtensa-lx106-elf/lib/gcc/xtensa-lx106-elf/4.8.2/libgcc.a(_truncdfsf2.o)
 .xt.prop       0x00000000000243fc       0x60 /home/olga/esp/esp-open-sdk/xtensa-lx106-elf/lib/gcc/xtensa-lx106-elf/4.8.2/libgcc.a(_extendsfdf2.o)
                                         0x6c (size before relaxing)
 .xt.prop       0x000000000002445c       0x24 /home/olga/esp/esp-open-sdk/xtensa-lx106-elf/lib/gcc/xtensa-lx106-elf/4.8.2/libgcc.a(_muldi3.o)
                                         0x30 (size before relaxing)
 .xt.prop       0x0000000000024480       0x3c /home/olga/esp/esp-open-sdk/xtensa-lx106-elf/lib/gcc/xtensa-lx106-elf/4.8.2/libgcc.a(_popcountsi2.o)
 .xt.prop       0x00000000000244bc      0x1f8 /home/olga/esp/esp-open-sdk/xtensa-lx106-elf/lib/gcc/xtensa-lx106-elf/4.8.2/libgcc.a(_divdi3.o)
                                        0x204 (size before relaxing)
 .xt.prop       0x00000000000246b4      0x144 /home/olga/esp/esp-open-sdk/xtensa-lx106-elf/lib/gcc/xtensa-lx106-elf/4.8.2/libgcc.a(_umoddi3.o)
                                        0x150 (size before relaxing)
 .xt.prop       0x00000000000247f8       0x3c /home/olga/esp/esp-open-sdk/xtensa-lx106-elf/lib/gcc/xtensa-lx106-elf/4.8.2/libgcc.a(_umulsidi3.o)
 .xt.prop       0x0000000000024834        0xc /home/olga/esp/esp-open-sdk/xtensa-lx106-elf/lib/gcc/xtensa-lx106-elf/4.8.2/libgcc.a(_popcount_tab.o)
 .xt.prop       0x0000000000024840       0x3c ../../libc/xtensa-lx106-elf/lib/libc.a(lib_a-bzero.o)
 .xt.prop       0x000000000002487c       0x24 ../../libc/xtensa-lx106-elf/lib/libc.a(lib_a-calloc.o)
                                         0x30 (size before relaxing)
 .xt.prop       0x00000000000248a0       0x54 ../../libc/xtensa-lx106-elf/lib/libc.a(lib_a-memcmp.o)
 .xt.prop       0x00000000000248f4       0x90 ../../libc/xtensa-lx106-elf/lib/libc.a(lib_a-mstats.o)
 .xt.prop       0x0000000000024984       0x3c ../../libc/xtensa-lx106-elf/lib/libc.a(lib_a-nano-callocr.o)
 .xt.prop       0x00000000000249c0       0x6c ../../libc/xtensa-lx106-elf/lib/libc.a(lib_a-nano-mallinfor.o)
 .xt.prop       0x0000000000024a2c       0x24 ../../libc/xtensa-lx106-elf/lib/libc.a(lib_a-nano-malloptr.o)
 .xt.prop       0x0000000000024a50       0x30 ../../libc/xtensa-lx106-elf/lib/libc.a(lib_a-nano-mallstatsr.o)
 .xt.prop       0x0000000000024a80       0x54 ../../libc/xtensa-lx106-elf/lib/libc.a(lib_a-rand.o)
 .xt.prop       0x0000000000024ad4       0x3c ../../libc/xtensa-lx106-elf/lib/libc.a(lib_a-sprintf.o)
                                         0x48 (size before relaxing)
 .xt.prop       0x0000000000024b10       0x78 ../../libc/xtensa-lx106-elf/lib/libc.a(lib_a-strncmp.o)
 .xt.prop       0x0000000000024b88      0x168 ../../libc/xtensa-lx106-elf/lib/libc.a(lib_a-strncpy.o)
                                        0x174 (size before relaxing)
 .xt.prop       0x0000000000024cf0       0x60 ../../libc/xtensa-lx106-elf/lib/libc.a(lib_a-strrchr.o)
                                         0x6c (size before relaxing)
 .xt.prop       0x0000000000024d50       0x24 ../../libc/xtensa-lx106-elf/lib/libc.a(lib_a-syssbrk.o)
                                         0x30 (size before relaxing)
 .xt.prop       0x0000000000024d74       0x3c ../../libc/xtensa-lx106-elf/lib/libc.a(lib_a-fprintf.o)
                                         0x48 (size before relaxing)
 .xt.prop       0x0000000000024db0      0x2e8 ../../libc/xtensa-lx106-elf/lib/libc.a(lib_a-nano-svfprintf.o)
 .xt.prop       0x0000000000025098       0x60 ../../libc/xtensa-lx106-elf/lib/libc.a(lib_a-strchr.o)
 .xt.prop       0x00000000000250f8       0xb4 ./build/sdklib/libnet80211.a(ieee80211_crypto_ccmp.o)
                                         0xc0 (size before relaxing)
 .xt.prop       0x00000000000251ac       0xcc ./build/sdklib/libnet80211.a(ieee80211_crypto_tkip.o)
                                         0xe4 (size before relaxing)
 .xt.prop       0x0000000000025278       0x6c ./build/sdklib/libnet80211.a(ieee80211_crypto_wep.o)
                                         0x78 (size before relaxing)

.debug_line     0x0000000000000000    0x1d80b
 .debug_line    0x0000000000000000      0x402 ./build/core.a(exception_vectors.o)
 .debug_line    0x0000000000000402      0xb96 ./build/core.a(app_main.o)
 .debug_line    0x0000000000000f98      0x1eb ../../libc/xtensa-lx106-elf/lib/libc.a(lib_a-malloc.o)
 .debug_line    0x0000000000001183      0x355 ../../libc/xtensa-lx106-elf/lib/libc.a(lib_a-memcpy.o)
 .debug_line    0x00000000000014d8      0x17a ../../libc/xtensa-lx106-elf/lib/libc.a(lib_a-memset.o)
 .debug_line    0x0000000000001652      0x22f ../../libc/xtensa-lx106-elf/lib/libc.a(lib_a-nano-freer.o)
 .debug_line    0x0000000000001881      0x28f ../../libc/xtensa-lx106-elf/lib/libc.a(lib_a-nano-mallocr.o)
 .debug_line    0x0000000000001b10      0x232 ../../libc/xtensa-lx106-elf/lib/libc.a(lib_a-printf.o)
 .debug_line    0x0000000000001d42      0x1de ../../libc/xtensa-lx106-elf/lib/libc.a(lib_a-putchar.o)
 .debug_line    0x0000000000001f20      0x23c ../../libc/xtensa-lx106-elf/lib/libc.a(lib_a-putc.o)
 .debug_line    0x000000000000215c      0x278 ../../libc/xtensa-lx106-elf/lib/libc.a(lib_a-puts.o)
 .debug_line    0x00000000000023d4      0x12c ../../libc/xtensa-lx106-elf/lib/libc.a(lib_a-strlen.o)
 .debug_line    0x0000000000002500      0x2a4 ../../libc/xtensa-lx106-elf/lib/libc.a(lib_a-wbuf.o)
 .debug_line    0x00000000000027a4      0x2a3 ../../libc/xtensa-lx106-elf/lib/libc.a(lib_a-wsetup.o)
 .debug_line    0x0000000000002a47       0xa3 ../../libc/xtensa-lx106-elf/lib/libc.a(lock.o)
 .debug_line    0x0000000000002aea      0x3f4 ../../libc/xtensa-lx106-elf/lib/libc.a(lib_a-fflush.o)
 .debug_line    0x0000000000002ede      0x533 ../../libc/xtensa-lx106-elf/lib/libc.a(lib_a-findfp.o)
 .debug_line    0x0000000000003411      0x51e ../../libc/xtensa-lx106-elf/lib/libc.a(lib_a-fvwrite.o)
 .debug_line    0x000000000000392f      0x271 ../../libc/xtensa-lx106-elf/lib/libc.a(lib_a-fwalk.o)
 .debug_line    0x0000000000003ba0      0x14d ../../libc/xtensa-lx106-elf/lib/libc.a(lib_a-impure.o)
 .debug_line    0x0000000000003ced      0x2cd ../../libc/xtensa-lx106-elf/lib/libc.a(lib_a-makebuf.o)
 .debug_line    0x0000000000003fba      0x127 ../../libc/xtensa-lx106-elf/lib/libc.a(lib_a-memchr.o)
 .debug_line    0x00000000000040e1      0x145 ../../libc/xtensa-lx106-elf/lib/libc.a(lib_a-memmove.o)
 .debug_line    0x0000000000004226      0x1f1 ../../libc/xtensa-lx106-elf/lib/libc.a(lib_a-nano-reallocr.o)
 .debug_line    0x0000000000004417      0x61f ../../libc/xtensa-lx106-elf/lib/libc.a(lib_a-nano-vfprintf.o)
 .debug_line    0x0000000000004a36      0x28d ../../libc/xtensa-lx106-elf/lib/libc.a(lib_a-stdio.o)
 .debug_line    0x0000000000004cc3      0x1bb ../../libc/xtensa-lx106-elf/lib/libc.a(isatty.o)
 .debug_line    0x0000000000004e7e      0x2b0 ../../libc/xtensa-lx106-elf/lib/libc.a(lib_a-fclose.o)
 .debug_line    0x000000000000512e      0x2f5 ../../libc/xtensa-lx106-elf/lib/libc.a(lib_a-fputwc.o)
 .debug_line    0x0000000000005423      0x26b ../../libc/xtensa-lx106-elf/lib/libc.a(lib_a-locale.o)
 .debug_line    0x000000000000568e      0x183 ../../libc/xtensa-lx106-elf/lib/libc.a(lib_a-nano-msizer.o)
 .debug_line    0x0000000000005811      0x726 ../../libc/xtensa-lx106-elf/lib/libc.a(lib_a-nano-vfprintf_i.o)
 .debug_line    0x0000000000005f37      0x284 ../../libc/xtensa-lx106-elf/lib/libc.a(lib_a-strcmp.o)
 .debug_line    0x00000000000061bb      0x213 ../../libc/xtensa-lx106-elf/lib/libc.a(lib_a-wcrtomb.o)
 .debug_line    0x00000000000063ce      0x220 ../../libc/xtensa-lx106-elf/lib/libc.a(lib_a-wctomb_r.o)
 .debug_line    0x00000000000065ee      0x2a8 ./build/program.a(simple.o)
 .debug_line    0x0000000000006896      0x953 ./build/freertos.a(queue.o)
 .debug_line    0x00000000000071e9      0x2bd ./build/freertos.a(list.o)
 .debug_line    0x00000000000074a6      0xfa1 ./build/freertos.a(tasks.o)
 .debug_line    0x0000000000008447      0x5b8 ./build/freertos.a(timers.o)
 .debug_line    0x00000000000089ff      0x585 ./build/freertos.a(port.o)
 .debug_line    0x0000000000008f84      0x26b ./build/lwip.a(esp_interface.o)
 .debug_line    0x00000000000091ef      0x77b ./build/lwip.a(tcpip.o)
 .debug_line    0x000000000000996a     0x15b6 ./build/lwip.a(dhcp.o)
 .debug_line    0x000000000000af20      0x212 ./build/lwip.a(init.o)
 .debug_line    0x000000000000b132      0x19d ./build/lwip.a(memp.o)
 .debug_line    0x000000000000b2cf      0x809 ./build/lwip.a(dns.o)
 .debug_line    0x000000000000bad8     0x143a ./build/lwip.a(tcp.o)
 .debug_line    0x000000000000cf12      0xa94 ./build/lwip.a(pbuf.o)
 .debug_line    0x000000000000d9a6      0x538 ./build/lwip.a(netif.o)
 .debug_line    0x000000000000dede      0x146 ./build/lwip.a(stats.o)
 .debug_line    0x000000000000e024      0x5e4 ./build/lwip.a(timers.o)
 .debug_line    0x000000000000e608      0x979 ./build/lwip.a(udp.o)
 .debug_line    0x000000000000ef81     0x1241 ./build/lwip.a(tcp_out.o)
 .debug_line    0x00000000000101c2      0x4d5 ./build/lwip.a(ip_addr.o)
 .debug_line    0x0000000000010697      0x795 ./build/lwip.a(ip.o)
 .debug_line    0x0000000000010e2c      0x511 ./build/lwip.a(inet_chksum.o)
 .debug_line    0x000000000001133d      0x480 ./build/lwip.a(icmp.o)
 .debug_line    0x00000000000117bd      0xc28 ./build/lwip.a(etharp.o)
 .debug_line    0x00000000000123e5      0x6b1 ./build/lwip.a(sys_arch.o)
 .debug_line    0x0000000000012a96     0x1807 ./build/lwip.a(sockets.o)
 .debug_line    0x000000000001429d     0x1234 ./build/lwip.a(tcp_in.o)
 .debug_line    0x00000000000154d1      0x49e ./build/lwip.a(raw.o)
 .debug_line    0x000000000001596f      0x3d4 ./build/lwip.a(ip_frag.o)
 .debug_line    0x0000000000015d43      0xacd ./build/lwip.a(api_lib.o)
 .debug_line    0x0000000000016810      0x3d3 ./build/lwip.a(netbuf.o)
 .debug_line    0x0000000000016be3     0x1305 ./build/lwip.a(api_msg.o)
 .debug_line    0x0000000000017ee8      0x16f ./build/core.a(sdk_compat.o)
 .debug_line    0x0000000000018057      0x249 ./build/core.a(newlib_syscalls.o)
 .debug_line    0x00000000000182a0      0x15c /home/olga/esp/esp-open-sdk/xtensa-lx106-elf/lib/gcc/xtensa-lx106-elf/4.8.2/libgcc.a(_divsi3.o)
 .debug_line    0x00000000000183fc      0x11a /home/olga/esp/esp-open-sdk/xtensa-lx106-elf/lib/gcc/xtensa-lx106-elf/4.8.2/libgcc.a(_modsi3.o)
 .debug_line    0x0000000000018516      0x12c /home/olga/esp/esp-open-sdk/xtensa-lx106-elf/lib/gcc/xtensa-lx106-elf/4.8.2/libgcc.a(_udivsi3.o)
 .debug_line    0x0000000000018642       0xfc /home/olga/esp/esp-open-sdk/xtensa-lx106-elf/lib/gcc/xtensa-lx106-elf/4.8.2/libgcc.a(_umodsi3.o)
 .debug_line    0x000000000001873e       0xba /home/olga/esp/esp-open-sdk/xtensa-lx106-elf/lib/gcc/xtensa-lx106-elf/4.8.2/libgcc.a(_ashrdi3.o)
 .debug_line    0x00000000000187f8      0x4bd /home/olga/esp/esp-open-sdk/xtensa-lx106-elf/lib/gcc/xtensa-lx106-elf/4.8.2/libgcc.a(_addsubsf3.o)
 .debug_line    0x0000000000018cb5      0x37f /home/olga/esp/esp-open-sdk/xtensa-lx106-elf/lib/gcc/xtensa-lx106-elf/4.8.2/libgcc.a(_mulsf3.o)
 .debug_line    0x0000000000019034      0x319 /home/olga/esp/esp-open-sdk/xtensa-lx106-elf/lib/gcc/xtensa-lx106-elf/4.8.2/libgcc.a(_divsf3.o)
 .debug_line    0x000000000001934d      0x115 /home/olga/esp/esp-open-sdk/xtensa-lx106-elf/lib/gcc/xtensa-lx106-elf/4.8.2/libgcc.a(_fixsfsi.o)
 .debug_line    0x0000000000019462      0x145 /home/olga/esp/esp-open-sdk/xtensa-lx106-elf/lib/gcc/xtensa-lx106-elf/4.8.2/libgcc.a(_fixunssfsi.o)
 .debug_line    0x00000000000195a7      0x121 /home/olga/esp/esp-open-sdk/xtensa-lx106-elf/lib/gcc/xtensa-lx106-elf/4.8.2/libgcc.a(_floatsisf.o)
 .debug_line    0x00000000000196c8      0x6bb /home/olga/esp/esp-open-sdk/xtensa-lx106-elf/lib/gcc/xtensa-lx106-elf/4.8.2/libgcc.a(_addsubdf3.o)
 .debug_line    0x0000000000019d83      0x62d /home/olga/esp/esp-open-sdk/xtensa-lx106-elf/lib/gcc/xtensa-lx106-elf/4.8.2/libgcc.a(_muldf3.o)
 .debug_line    0x000000000001a3b0      0x4d5 /home/olga/esp/esp-open-sdk/xtensa-lx106-elf/lib/gcc/xtensa-lx106-elf/4.8.2/libgcc.a(_divdf3.o)
 .debug_line    0x000000000001a885      0x127 /home/olga/esp/esp-open-sdk/xtensa-lx106-elf/lib/gcc/xtensa-lx106-elf/4.8.2/libgcc.a(_fixdfsi.o)
 .debug_line    0x000000000001a9ac      0x103 /home/olga/esp/esp-open-sdk/xtensa-lx106-elf/lib/gcc/xtensa-lx106-elf/4.8.2/libgcc.a(_floatsidf.o)
 .debug_line    0x000000000001aaaf      0x1d5 /home/olga/esp/esp-open-sdk/xtensa-lx106-elf/lib/gcc/xtensa-lx106-elf/4.8.2/libgcc.a(_truncdfsf2.o)
 .debug_line    0x000000000001ac84      0x157 /home/olga/esp/esp-open-sdk/xtensa-lx106-elf/lib/gcc/xtensa-lx106-elf/4.8.2/libgcc.a(_extendsfdf2.o)
 .debug_line    0x000000000001addb       0xcb /home/olga/esp/esp-open-sdk/xtensa-lx106-elf/lib/gcc/xtensa-lx106-elf/4.8.2/libgcc.a(_muldi3.o)
 .debug_line    0x000000000001aea6       0xc7 /home/olga/esp/esp-open-sdk/xtensa-lx106-elf/lib/gcc/xtensa-lx106-elf/4.8.2/libgcc.a(_popcountsi2.o)
 .debug_line    0x000000000001af6d      0x212 /home/olga/esp/esp-open-sdk/xtensa-lx106-elf/lib/gcc/xtensa-lx106-elf/4.8.2/libgcc.a(_divdi3.o)
 .debug_line    0x000000000001b17f      0x235 /home/olga/esp/esp-open-sdk/xtensa-lx106-elf/lib/gcc/xtensa-lx106-elf/4.8.2/libgcc.a(_umoddi3.o)
 .debug_line    0x000000000001b3b4      0x138 /home/olga/esp/esp-open-sdk/xtensa-lx106-elf/lib/gcc/xtensa-lx106-elf/4.8.2/libgcc.a(_umulsidi3.o)
 .debug_line    0x000000000001b4ec       0x7c /home/olga/esp/esp-open-sdk/xtensa-lx106-elf/lib/gcc/xtensa-lx106-elf/4.8.2/libgcc.a(_popcount_tab.o)
 .debug_line    0x000000000001b568      0x11a ../../libc/xtensa-lx106-elf/lib/libc.a(lib_a-bzero.o)
 .debug_line    0x000000000001b682      0x1cc ../../libc/xtensa-lx106-elf/lib/libc.a(lib_a-calloc.o)
 .debug_line    0x000000000001b84e      0x120 ../../libc/xtensa-lx106-elf/lib/libc.a(lib_a-memcmp.o)
 .debug_line    0x000000000001b96e      0x280 ../../libc/xtensa-lx106-elf/lib/libc.a(lib_a-mstats.o)
 .debug_line    0x000000000001bbee      0x1d9 ../../libc/xtensa-lx106-elf/lib/libc.a(lib_a-nano-callocr.o)
 .debug_line    0x000000000001bdc7      0x242 ../../libc/xtensa-lx106-elf/lib/libc.a(lib_a-nano-mallinfor.o)
 .debug_line    0x000000000001c009      0x16b ../../libc/xtensa-lx106-elf/lib/libc.a(lib_a-nano-malloptr.o)
 .debug_line    0x000000000001c174      0x1cc ../../libc/xtensa-lx106-elf/lib/libc.a(lib_a-nano-mallstatsr.o)
 .debug_line    0x000000000001c340      0x1d1 ../../libc/xtensa-lx106-elf/lib/libc.a(lib_a-rand.o)
 .debug_line    0x000000000001c511      0x2ab ../../libc/xtensa-lx106-elf/lib/libc.a(lib_a-sprintf.o)
 .debug_line    0x000000000001c7bc      0x13e ../../libc/xtensa-lx106-elf/lib/libc.a(lib_a-strncmp.o)
 .debug_line    0x000000000001c8fa      0x29b ../../libc/xtensa-lx106-elf/lib/libc.a(lib_a-strncpy.o)
 .debug_line    0x000000000001cb95       0xc2 ../../libc/xtensa-lx106-elf/lib/libc.a(lib_a-strrchr.o)
 .debug_line    0x000000000001cc57      0x1ce ../../libc/xtensa-lx106-elf/lib/libc.a(lib_a-syssbrk.o)
 .debug_line    0x000000000001ce25      0x21b ../../libc/xtensa-lx106-elf/lib/libc.a(lib_a-fprintf.o)
 .debug_line    0x000000000001d040      0x6f8 ../../libc/xtensa-lx106-elf/lib/libc.a(lib_a-nano-svfprintf.o)
 .debug_line    0x000000000001d738       0xd3 ../../libc/xtensa-lx106-elf/lib/libc.a(lib_a-strchr.o)

.debug_info     0x0000000000000000    0x3ca5d
 .debug_info    0x0000000000000000       0xb9 ./build/core.a(exception_vectors.o)
 .debug_info    0x00000000000000b9     0x2125 ./build/core.a(app_main.o)
 .debug_info    0x00000000000021de      0x920 ../../libc/xtensa-lx106-elf/lib/libc.a(lib_a-malloc.o)
 .debug_info    0x0000000000002afe       0xac ../../libc/xtensa-lx106-elf/lib/libc.a(lib_a-memcpy.o)
 .debug_info    0x0000000000002baa       0xac ../../libc/xtensa-lx106-elf/lib/libc.a(lib_a-memset.o)
 .debug_info    0x0000000000002c56      0x97d ../../libc/xtensa-lx106-elf/lib/libc.a(lib_a-nano-freer.o)
 .debug_info    0x00000000000035d3      0xa58 ../../libc/xtensa-lx106-elf/lib/libc.a(lib_a-nano-mallocr.o)
 .debug_info    0x000000000000402b      0x9c6 ../../libc/xtensa-lx106-elf/lib/libc.a(lib_a-printf.o)
 .debug_info    0x00000000000049f1      0x940 ../../libc/xtensa-lx106-elf/lib/libc.a(lib_a-putchar.o)
 .debug_info    0x0000000000005331      0x9e7 ../../libc/xtensa-lx106-elf/lib/libc.a(lib_a-putc.o)
 .debug_info    0x0000000000005d18      0xa75 ../../libc/xtensa-lx106-elf/lib/libc.a(lib_a-puts.o)
 .debug_info    0x000000000000678d       0xac ../../libc/xtensa-lx106-elf/lib/libc.a(lib_a-strlen.o)
 .debug_info    0x0000000000006839      0x9e2 ../../libc/xtensa-lx106-elf/lib/libc.a(lib_a-wbuf.o)
 .debug_info    0x000000000000721b      0x947 ../../libc/xtensa-lx106-elf/lib/libc.a(lib_a-wsetup.o)
 .debug_info    0x0000000000007b62       0x86 ../../libc/xtensa-lx106-elf/lib/libc.a(lock.o)
 .debug_info    0x0000000000007be8      0xb74 ../../libc/xtensa-lx106-elf/lib/libc.a(lib_a-fflush.o)
 .debug_info    0x000000000000875c      0xed4 ../../libc/xtensa-lx106-elf/lib/libc.a(lib_a-findfp.o)
 .debug_info    0x0000000000009630      0xc30 ../../libc/xtensa-lx106-elf/lib/libc.a(lib_a-fvwrite.o)
 .debug_info    0x000000000000a260      0x9a3 ../../libc/xtensa-lx106-elf/lib/libc.a(lib_a-fwalk.o)
 .debug_info    0x000000000000ac03      0x89f ../../libc/xtensa-lx106-elf/lib/libc.a(lib_a-impure.o)
 .debug_info    0x000000000000b4a2      0xaf1 ../../libc/xtensa-lx106-elf/lib/libc.a(lib_a-makebuf.o)
 .debug_info    0x000000000000bf93       0xf8 ../../libc/xtensa-lx106-elf/lib/libc.a(lib_a-memchr.o)
 .debug_info    0x000000000000c08b      0x102 ../../libc/xtensa-lx106-elf/lib/libc.a(lib_a-memmove.o)
 .debug_info    0x000000000000c18d      0xa12 ../../libc/xtensa-lx106-elf/lib/libc.a(lib_a-nano-reallocr.o)
 .debug_info    0x000000000000cb9f      0xfe4 ../../libc/xtensa-lx106-elf/lib/libc.a(lib_a-nano-vfprintf.o)
 .debug_info    0x000000000000db83      0xb94 ../../libc/xtensa-lx106-elf/lib/libc.a(lib_a-stdio.o)
 .debug_info    0x000000000000e717      0xa58 ../../libc/xtensa-lx106-elf/lib/libc.a(isatty.o)
 .debug_info    0x000000000000f16f      0xa88 ../../libc/xtensa-lx106-elf/lib/libc.a(lib_a-fclose.o)
 .debug_info    0x000000000000fbf7      0xb1b ../../libc/xtensa-lx106-elf/lib/libc.a(lib_a-fputwc.o)
 .debug_info    0x0000000000010712      0xbed ../../libc/xtensa-lx106-elf/lib/libc.a(lib_a-locale.o)
 .debug_info    0x00000000000112ff      0x918 ../../libc/xtensa-lx106-elf/lib/libc.a(lib_a-nano-msizer.o)
 .debug_info    0x0000000000011c17      0xc82 ../../libc/xtensa-lx106-elf/lib/libc.a(lib_a-nano-vfprintf_i.o)
 .debug_info    0x0000000000012899       0xac ../../libc/xtensa-lx106-elf/lib/libc.a(lib_a-strcmp.o)
 .debug_info    0x0000000000012945      0x9e3 ../../libc/xtensa-lx106-elf/lib/libc.a(lib_a-wcrtomb.o)
 .debug_info    0x0000000000013328      0x9c0 ../../libc/xtensa-lx106-elf/lib/libc.a(lib_a-wctomb_r.o)
 .debug_info    0x0000000000013ce8      0x50f ./build/program.a(simple.o)
 .debug_info    0x00000000000141f7     0x1035 ./build/freertos.a(queue.o)
 .debug_info    0x000000000001522c      0x30a ./build/freertos.a(list.o)
 .debug_info    0x0000000000015536     0x1978 ./build/freertos.a(tasks.o)
 .debug_info    0x0000000000016eae      0xead ./build/freertos.a(timers.o)
 .debug_info    0x0000000000017d5b      0x740 ./build/freertos.a(port.o)
 .debug_info    0x000000000001849b      0x5f2 ./build/lwip.a(esp_interface.o)
 .debug_info    0x0000000000018a8d     0x1038 ./build/lwip.a(tcpip.o)
 .debug_info    0x0000000000019ac5     0x25e3 ./build/lwip.a(dhcp.o)
 .debug_info    0x000000000001c0a8      0x1a5 ./build/lwip.a(init.o)
 .debug_info    0x000000000001c24d      0x1ae ./build/lwip.a(memp.o)
 .debug_info    0x000000000001c3fb      0xe86 ./build/lwip.a(dns.o)
 .debug_info    0x000000000001d281     0x1dc6 ./build/lwip.a(tcp.o)
 .debug_info    0x000000000001f047      0xcbb ./build/lwip.a(pbuf.o)
 .debug_info    0x000000000001fd02     0x11af ./build/lwip.a(netif.o)
 .debug_info    0x0000000000020eb1      0x28a ./build/lwip.a(stats.o)
 .debug_info    0x000000000002113b      0xc82 ./build/lwip.a(timers.o)
 .debug_info    0x0000000000021dbd     0x1146 ./build/lwip.a(udp.o)
 .debug_info    0x0000000000022f03     0x197a ./build/lwip.a(tcp_out.o)
 .debug_info    0x000000000002487d      0x615 ./build/lwip.a(ip_addr.o)
 .debug_info    0x0000000000024e92      0xe96 ./build/lwip.a(ip.o)
 .debug_info    0x0000000000025d28      0x453 ./build/lwip.a(inet_chksum.o)
 .debug_info    0x000000000002617b      0xb60 ./build/lwip.a(icmp.o)
 .debug_info    0x0000000000026cdb     0x18d8 ./build/lwip.a(etharp.o)
 .debug_info    0x00000000000285b3      0xd52 ./build/lwip.a(sys_arch.o)
 .debug_info    0x0000000000029305     0x2aad ./build/lwip.a(sockets.o)
 .debug_info    0x000000000002bdb2     0x15ef ./build/lwip.a(tcp_in.o)
 .debug_info    0x000000000002d3a1      0x9d0 ./build/lwip.a(raw.o)
 .debug_info    0x000000000002dd71      0x824 ./build/lwip.a(ip_frag.o)
 .debug_info    0x000000000002e595     0x19f6 ./build/lwip.a(api_lib.o)
 .debug_info    0x000000000002ff8b      0x589 ./build/lwip.a(netbuf.o)
 .debug_info    0x0000000000030514     0x257c ./build/lwip.a(api_msg.o)
 .debug_info    0x0000000000032a90      0x122 ./build/core.a(sdk_compat.o)
 .debug_info    0x0000000000032bb2      0xa27 ./build/core.a(newlib_syscalls.o)
 .debug_info    0x00000000000335d9       0xf3 /home/olga/esp/esp-open-sdk/xtensa-lx106-elf/lib/gcc/xtensa-lx106-elf/4.8.2/libgcc.a(_divsi3.o)
 .debug_info    0x00000000000336cc       0xf3 /home/olga/esp/esp-open-sdk/xtensa-lx106-elf/lib/gcc/xtensa-lx106-elf/4.8.2/libgcc.a(_modsi3.o)
 .debug_info    0x00000000000337bf       0xf3 /home/olga/esp/esp-open-sdk/xtensa-lx106-elf/lib/gcc/xtensa-lx106-elf/4.8.2/libgcc.a(_udivsi3.o)
 .debug_info    0x00000000000338b2       0xf3 /home/olga/esp/esp-open-sdk/xtensa-lx106-elf/lib/gcc/xtensa-lx106-elf/4.8.2/libgcc.a(_umodsi3.o)
 .debug_info    0x00000000000339a5       0xf3 /home/olga/esp/esp-open-sdk/xtensa-lx106-elf/lib/gcc/xtensa-lx106-elf/4.8.2/libgcc.a(_ashrdi3.o)
 .debug_info    0x0000000000033a98       0xf4 /home/olga/esp/esp-open-sdk/xtensa-lx106-elf/lib/gcc/xtensa-lx106-elf/4.8.2/libgcc.a(_addsubsf3.o)
 .debug_info    0x0000000000033b8c       0xf4 /home/olga/esp/esp-open-sdk/xtensa-lx106-elf/lib/gcc/xtensa-lx106-elf/4.8.2/libgcc.a(_mulsf3.o)
 .debug_info    0x0000000000033c80       0xf4 /home/olga/esp/esp-open-sdk/xtensa-lx106-elf/lib/gcc/xtensa-lx106-elf/4.8.2/libgcc.a(_divsf3.o)
 .debug_info    0x0000000000033d74       0xf4 /home/olga/esp/esp-open-sdk/xtensa-lx106-elf/lib/gcc/xtensa-lx106-elf/4.8.2/libgcc.a(_fixsfsi.o)
 .debug_info    0x0000000000033e68       0xf4 /home/olga/esp/esp-open-sdk/xtensa-lx106-elf/lib/gcc/xtensa-lx106-elf/4.8.2/libgcc.a(_fixunssfsi.o)
 .debug_info    0x0000000000033f5c       0xf4 /home/olga/esp/esp-open-sdk/xtensa-lx106-elf/lib/gcc/xtensa-lx106-elf/4.8.2/libgcc.a(_floatsisf.o)
 .debug_info    0x0000000000034050       0xf4 /home/olga/esp/esp-open-sdk/xtensa-lx106-elf/lib/gcc/xtensa-lx106-elf/4.8.2/libgcc.a(_addsubdf3.o)
 .debug_info    0x0000000000034144       0xf4 /home/olga/esp/esp-open-sdk/xtensa-lx106-elf/lib/gcc/xtensa-lx106-elf/4.8.2/libgcc.a(_muldf3.o)
 .debug_info    0x0000000000034238       0xf4 /home/olga/esp/esp-open-sdk/xtensa-lx106-elf/lib/gcc/xtensa-lx106-elf/4.8.2/libgcc.a(_divdf3.o)
 .debug_info    0x000000000003432c       0xf4 /home/olga/esp/esp-open-sdk/xtensa-lx106-elf/lib/gcc/xtensa-lx106-elf/4.8.2/libgcc.a(_fixdfsi.o)
 .debug_info    0x0000000000034420       0xf4 /home/olga/esp/esp-open-sdk/xtensa-lx106-elf/lib/gcc/xtensa-lx106-elf/4.8.2/libgcc.a(_floatsidf.o)
 .debug_info    0x0000000000034514       0xf4 /home/olga/esp/esp-open-sdk/xtensa-lx106-elf/lib/gcc/xtensa-lx106-elf/4.8.2/libgcc.a(_truncdfsf2.o)
 .debug_info    0x0000000000034608       0xf4 /home/olga/esp/esp-open-sdk/xtensa-lx106-elf/lib/gcc/xtensa-lx106-elf/4.8.2/libgcc.a(_extendsfdf2.o)
 .debug_info    0x00000000000346fc      0x174 /home/olga/esp/esp-open-sdk/xtensa-lx106-elf/lib/gcc/xtensa-lx106-elf/4.8.2/libgcc.a(_muldi3.o)
 .debug_info    0x0000000000034870       0xff /home/olga/esp/esp-open-sdk/xtensa-lx106-elf/lib/gcc/xtensa-lx106-elf/4.8.2/libgcc.a(_popcountsi2.o)
 .debug_info    0x000000000003496f      0x60c /home/olga/esp/esp-open-sdk/xtensa-lx106-elf/lib/gcc/xtensa-lx106-elf/4.8.2/libgcc.a(_divdi3.o)
 .debug_info    0x0000000000034f7b      0x61d /home/olga/esp/esp-open-sdk/xtensa-lx106-elf/lib/gcc/xtensa-lx106-elf/4.8.2/libgcc.a(_umoddi3.o)
 .debug_info    0x0000000000035598       0xf3 /home/olga/esp/esp-open-sdk/xtensa-lx106-elf/lib/gcc/xtensa-lx106-elf/4.8.2/libgcc.a(_umulsidi3.o)
 .debug_info    0x000000000003568b       0xab /home/olga/esp/esp-open-sdk/xtensa-lx106-elf/lib/gcc/xtensa-lx106-elf/4.8.2/libgcc.a(_popcount_tab.o)
 .debug_info    0x0000000000035736       0xca ../../libc/xtensa-lx106-elf/lib/libc.a(lib_a-bzero.o)
 .debug_info    0x0000000000035800      0x8ee ../../libc/xtensa-lx106-elf/lib/libc.a(lib_a-calloc.o)
 .debug_info    0x00000000000360ee       0xef ../../libc/xtensa-lx106-elf/lib/libc.a(lib_a-memcmp.o)
 .debug_info    0x00000000000361dd      0xaa4 ../../libc/xtensa-lx106-elf/lib/libc.a(lib_a-mstats.o)
 .debug_info    0x0000000000036c81      0x947 ../../libc/xtensa-lx106-elf/lib/libc.a(lib_a-nano-callocr.o)
 .debug_info    0x00000000000375c8      0xa4d ../../libc/xtensa-lx106-elf/lib/libc.a(lib_a-nano-mallinfor.o)
 .debug_info    0x0000000000038015      0x8b0 ../../libc/xtensa-lx106-elf/lib/libc.a(lib_a-nano-malloptr.o)
 .debug_info    0x00000000000388c5      0x9d9 ../../libc/xtensa-lx106-elf/lib/libc.a(lib_a-nano-mallstatsr.o)
 .debug_info    0x000000000003929e      0x8d6 ../../libc/xtensa-lx106-elf/lib/libc.a(lib_a-rand.o)
 .debug_info    0x0000000000039b74      0xa09 ../../libc/xtensa-lx106-elf/lib/libc.a(lib_a-sprintf.o)
 .debug_info    0x000000000003a57d       0xcf ../../libc/xtensa-lx106-elf/lib/libc.a(lib_a-strncmp.o)
 .debug_info    0x000000000003a64c       0xad ../../libc/xtensa-lx106-elf/lib/libc.a(lib_a-strncpy.o)
 .debug_info    0x000000000003a6f9      0x101 ../../libc/xtensa-lx106-elf/lib/libc.a(lib_a-strrchr.o)
 .debug_info    0x000000000003a7fa      0x8d4 ../../libc/xtensa-lx106-elf/lib/libc.a(lib_a-syssbrk.o)
 .debug_info    0x000000000003b0ce      0x9dd ../../libc/xtensa-lx106-elf/lib/libc.a(lib_a-fprintf.o)
 .debug_info    0x000000000003baab      0xecf ../../libc/xtensa-lx106-elf/lib/libc.a(lib_a-nano-svfprintf.o)
 .debug_info    0x000000000003c97a       0xe3 ../../libc/xtensa-lx106-elf/lib/libc.a(lib_a-strchr.o)

.debug_abbrev   0x0000000000000000     0xb81f
 .debug_abbrev  0x0000000000000000       0x14 ./build/core.a(exception_vectors.o)
 .debug_abbrev  0x0000000000000014      0x452 ./build/core.a(app_main.o)
 .debug_abbrev  0x0000000000000466      0x1f7 ../../libc/xtensa-lx106-elf/lib/libc.a(lib_a-malloc.o)
 .debug_abbrev  0x000000000000065d       0x14 ../../libc/xtensa-lx106-elf/lib/libc.a(lib_a-memcpy.o)
 .debug_abbrev  0x0000000000000671       0x14 ../../libc/xtensa-lx106-elf/lib/libc.a(lib_a-memset.o)
 .debug_abbrev  0x0000000000000685      0x213 ../../libc/xtensa-lx106-elf/lib/libc.a(lib_a-nano-freer.o)
 .debug_abbrev  0x0000000000000898      0x2a3 ../../libc/xtensa-lx106-elf/lib/libc.a(lib_a-nano-mallocr.o)
 .debug_abbrev  0x0000000000000b3b      0x20b ../../libc/xtensa-lx106-elf/lib/libc.a(lib_a-printf.o)
 .debug_abbrev  0x0000000000000d46      0x1f7 ../../libc/xtensa-lx106-elf/lib/libc.a(lib_a-putchar.o)
 .debug_abbrev  0x0000000000000f3d      0x233 ../../libc/xtensa-lx106-elf/lib/libc.a(lib_a-putc.o)
 .debug_abbrev  0x0000000000001170      0x24b ../../libc/xtensa-lx106-elf/lib/libc.a(lib_a-puts.o)
 .debug_abbrev  0x00000000000013bb       0x14 ../../libc/xtensa-lx106-elf/lib/libc.a(lib_a-strlen.o)
 .debug_abbrev  0x00000000000013cf      0x244 ../../libc/xtensa-lx106-elf/lib/libc.a(lib_a-wbuf.o)
 .debug_abbrev  0x0000000000001613      0x21e ../../libc/xtensa-lx106-elf/lib/libc.a(lib_a-wsetup.o)
 .debug_abbrev  0x0000000000001831       0x87 ../../libc/xtensa-lx106-elf/lib/libc.a(lock.o)
 .debug_abbrev  0x00000000000018b8      0x2d4 ../../libc/xtensa-lx106-elf/lib/libc.a(lib_a-fflush.o)
 .debug_abbrev  0x0000000000001b8c      0x324 ../../libc/xtensa-lx106-elf/lib/libc.a(lib_a-findfp.o)
 .debug_abbrev  0x0000000000001eb0      0x249 ../../libc/xtensa-lx106-elf/lib/libc.a(lib_a-fvwrite.o)
 .debug_abbrev  0x00000000000020f9      0x1c2 ../../libc/xtensa-lx106-elf/lib/libc.a(lib_a-fwalk.o)
 .debug_abbrev  0x00000000000022bb      0x180 ../../libc/xtensa-lx106-elf/lib/libc.a(lib_a-impure.o)
 .debug_abbrev  0x000000000000243b      0x21b ../../libc/xtensa-lx106-elf/lib/libc.a(lib_a-makebuf.o)
 .debug_abbrev  0x0000000000002656       0xab ../../libc/xtensa-lx106-elf/lib/libc.a(lib_a-memchr.o)
 .debug_abbrev  0x0000000000002701       0x9c ../../libc/xtensa-lx106-elf/lib/libc.a(lib_a-memmove.o)
 .debug_abbrev  0x000000000000279d      0x216 ../../libc/xtensa-lx106-elf/lib/libc.a(lib_a-nano-reallocr.o)
 .debug_abbrev  0x00000000000029b3      0x326 ../../libc/xtensa-lx106-elf/lib/libc.a(lib_a-nano-vfprintf.o)
 .debug_abbrev  0x0000000000002cd9      0x22b ../../libc/xtensa-lx106-elf/lib/libc.a(lib_a-stdio.o)
 .debug_abbrev  0x0000000000002f04      0x1ca ../../libc/xtensa-lx106-elf/lib/libc.a(isatty.o)
 .debug_abbrev  0x00000000000030ce      0x27a ../../libc/xtensa-lx106-elf/lib/libc.a(lib_a-fclose.o)
 .debug_abbrev  0x0000000000003348      0x268 ../../libc/xtensa-lx106-elf/lib/libc.a(lib_a-fputwc.o)
 .debug_abbrev  0x00000000000035b0      0x295 ../../libc/xtensa-lx106-elf/lib/libc.a(lib_a-locale.o)
 .debug_abbrev  0x0000000000003845      0x1bc ../../libc/xtensa-lx106-elf/lib/libc.a(lib_a-nano-msizer.o)
 .debug_abbrev  0x0000000000003a01      0x265 ../../libc/xtensa-lx106-elf/lib/libc.a(lib_a-nano-vfprintf_i.o)
 .debug_abbrev  0x0000000000003c66       0x14 ../../libc/xtensa-lx106-elf/lib/libc.a(lib_a-strcmp.o)
 .debug_abbrev  0x0000000000003c7a      0x20d ../../libc/xtensa-lx106-elf/lib/libc.a(lib_a-wcrtomb.o)
 .debug_abbrev  0x0000000000003e87      0x203 ../../libc/xtensa-lx106-elf/lib/libc.a(lib_a-wctomb_r.o)
 .debug_abbrev  0x000000000000408a      0x1b6 ./build/program.a(simple.o)
 .debug_abbrev  0x0000000000004240      0x2d3 ./build/freertos.a(queue.o)
 .debug_abbrev  0x0000000000004513      0x113 ./build/freertos.a(list.o)
 .debug_abbrev  0x0000000000004626      0x3ee ./build/freertos.a(tasks.o)
 .debug_abbrev  0x0000000000004a14      0x326 ./build/freertos.a(timers.o)
 .debug_abbrev  0x0000000000004d3a      0x3ba ./build/freertos.a(port.o)
 .debug_abbrev  0x00000000000050f4      0x188 ./build/lwip.a(esp_interface.o)
 .debug_abbrev  0x000000000000527c      0x2b6 ./build/lwip.a(tcpip.o)
 .debug_abbrev  0x0000000000005532      0x46d ./build/lwip.a(dhcp.o)
 .debug_abbrev  0x000000000000599f       0xba ./build/lwip.a(init.o)
 .debug_abbrev  0x0000000000005a59       0x96 ./build/lwip.a(memp.o)
 .debug_abbrev  0x0000000000005aef      0x32f ./build/lwip.a(dns.o)
 .debug_abbrev  0x0000000000005e1e      0x4af ./build/lwip.a(tcp.o)
 .debug_abbrev  0x00000000000062cd      0x2f8 ./build/lwip.a(pbuf.o)
 .debug_abbrev  0x00000000000065c5      0x374 ./build/lwip.a(netif.o)
 .debug_abbrev  0x0000000000006939       0xa3 ./build/lwip.a(stats.o)
 .debug_abbrev  0x00000000000069dc      0x263 ./build/lwip.a(timers.o)
 .debug_abbrev  0x0000000000006c3f      0x2eb ./build/lwip.a(udp.o)
 .debug_abbrev  0x0000000000006f2a      0x3dc ./build/lwip.a(tcp_out.o)
 .debug_abbrev  0x0000000000007306      0x1c9 ./build/lwip.a(ip_addr.o)
 .debug_abbrev  0x00000000000074cf      0x246 ./build/lwip.a(ip.o)
 .debug_abbrev  0x0000000000007715      0x15e ./build/lwip.a(inet_chksum.o)
 .debug_abbrev  0x0000000000007873      0x256 ./build/lwip.a(icmp.o)
 .debug_abbrev  0x0000000000007ac9      0x3bb ./build/lwip.a(etharp.o)
 .debug_abbrev  0x0000000000007e84      0x28c ./build/lwip.a(sys_arch.o)
 .debug_abbrev  0x0000000000008110      0x3f4 ./build/lwip.a(sockets.o)
 .debug_abbrev  0x0000000000008504      0x38c ./build/lwip.a(tcp_in.o)
 .debug_abbrev  0x0000000000008890      0x266 ./build/lwip.a(raw.o)
 .debug_abbrev  0x0000000000008af6      0x19a ./build/lwip.a(ip_frag.o)
 .debug_abbrev  0x0000000000008c90      0x310 ./build/lwip.a(api_lib.o)
 .debug_abbrev  0x0000000000008fa0      0x19c ./build/lwip.a(netbuf.o)
 .debug_abbrev  0x000000000000913c      0x41f ./build/lwip.a(api_msg.o)
 .debug_abbrev  0x000000000000955b       0xe2 ./build/core.a(sdk_compat.o)
 .debug_abbrev  0x000000000000963d      0x24e ./build/core.a(newlib_syscalls.o)
 .debug_abbrev  0x000000000000988b       0x14 /home/olga/esp/esp-open-sdk/xtensa-lx106-elf/lib/gcc/xtensa-lx106-elf/4.8.2/libgcc.a(_divsi3.o)
 .debug_abbrev  0x000000000000989f       0x14 /home/olga/esp/esp-open-sdk/xtensa-lx106-elf/lib/gcc/xtensa-lx106-elf/4.8.2/libgcc.a(_modsi3.o)
 .debug_abbrev  0x00000000000098b3       0x14 /home/olga/esp/esp-open-sdk/xtensa-lx106-elf/lib/gcc/xtensa-lx106-elf/4.8.2/libgcc.a(_udivsi3.o)
 .debug_abbrev  0x00000000000098c7       0x14 /home/olga/esp/esp-open-sdk/xtensa-lx106-elf/lib/gcc/xtensa-lx106-elf/4.8.2/libgcc.a(_umodsi3.o)
 .debug_abbrev  0x00000000000098db       0x14 /home/olga/esp/esp-open-sdk/xtensa-lx106-elf/lib/gcc/xtensa-lx106-elf/4.8.2/libgcc.a(_ashrdi3.o)
 .debug_abbrev  0x00000000000098ef       0x14 /home/olga/esp/esp-open-sdk/xtensa-lx106-elf/lib/gcc/xtensa-lx106-elf/4.8.2/libgcc.a(_addsubsf3.o)
 .debug_abbrev  0x0000000000009903       0x14 /home/olga/esp/esp-open-sdk/xtensa-lx106-elf/lib/gcc/xtensa-lx106-elf/4.8.2/libgcc.a(_mulsf3.o)
 .debug_abbrev  0x0000000000009917       0x14 /home/olga/esp/esp-open-sdk/xtensa-lx106-elf/lib/gcc/xtensa-lx106-elf/4.8.2/libgcc.a(_divsf3.o)
 .debug_abbrev  0x000000000000992b       0x14 /home/olga/esp/esp-open-sdk/xtensa-lx106-elf/lib/gcc/xtensa-lx106-elf/4.8.2/libgcc.a(_fixsfsi.o)
 .debug_abbrev  0x000000000000993f       0x14 /home/olga/esp/esp-open-sdk/xtensa-lx106-elf/lib/gcc/xtensa-lx106-elf/4.8.2/libgcc.a(_fixunssfsi.o)
 .debug_abbrev  0x0000000000009953       0x14 /home/olga/esp/esp-open-sdk/xtensa-lx106-elf/lib/gcc/xtensa-lx106-elf/4.8.2/libgcc.a(_floatsisf.o)
 .debug_abbrev  0x0000000000009967       0x14 /home/olga/esp/esp-open-sdk/xtensa-lx106-elf/lib/gcc/xtensa-lx106-elf/4.8.2/libgcc.a(_addsubdf3.o)
 .debug_abbrev  0x000000000000997b       0x14 /home/olga/esp/esp-open-sdk/xtensa-lx106-elf/lib/gcc/xtensa-lx106-elf/4.8.2/libgcc.a(_muldf3.o)
 .debug_abbrev  0x000000000000998f       0x14 /home/olga/esp/esp-open-sdk/xtensa-lx106-elf/lib/gcc/xtensa-lx106-elf/4.8.2/libgcc.a(_divdf3.o)
 .debug_abbrev  0x00000000000099a3       0x14 /home/olga/esp/esp-open-sdk/xtensa-lx106-elf/lib/gcc/xtensa-lx106-elf/4.8.2/libgcc.a(_fixdfsi.o)
 .debug_abbrev  0x00000000000099b7       0x14 /home/olga/esp/esp-open-sdk/xtensa-lx106-elf/lib/gcc/xtensa-lx106-elf/4.8.2/libgcc.a(_floatsidf.o)
 .debug_abbrev  0x00000000000099cb       0x14 /home/olga/esp/esp-open-sdk/xtensa-lx106-elf/lib/gcc/xtensa-lx106-elf/4.8.2/libgcc.a(_truncdfsf2.o)
 .debug_abbrev  0x00000000000099df       0x14 /home/olga/esp/esp-open-sdk/xtensa-lx106-elf/lib/gcc/xtensa-lx106-elf/4.8.2/libgcc.a(_extendsfdf2.o)
 .debug_abbrev  0x00000000000099f3       0xfd /home/olga/esp/esp-open-sdk/xtensa-lx106-elf/lib/gcc/xtensa-lx106-elf/4.8.2/libgcc.a(_muldi3.o)
 .debug_abbrev  0x0000000000009af0       0x9b /home/olga/esp/esp-open-sdk/xtensa-lx106-elf/lib/gcc/xtensa-lx106-elf/4.8.2/libgcc.a(_popcountsi2.o)
 .debug_abbrev  0x0000000000009b8b      0x1a3 /home/olga/esp/esp-open-sdk/xtensa-lx106-elf/lib/gcc/xtensa-lx106-elf/4.8.2/libgcc.a(_divdi3.o)
 .debug_abbrev  0x0000000000009d2e      0x1a3 /home/olga/esp/esp-open-sdk/xtensa-lx106-elf/lib/gcc/xtensa-lx106-elf/4.8.2/libgcc.a(_umoddi3.o)
 .debug_abbrev  0x0000000000009ed1       0x14 /home/olga/esp/esp-open-sdk/xtensa-lx106-elf/lib/gcc/xtensa-lx106-elf/4.8.2/libgcc.a(_umulsidi3.o)
 .debug_abbrev  0x0000000000009ee5       0x5d /home/olga/esp/esp-open-sdk/xtensa-lx106-elf/lib/gcc/xtensa-lx106-elf/4.8.2/libgcc.a(_popcount_tab.o)
 .debug_abbrev  0x0000000000009f42       0x8c ../../libc/xtensa-lx106-elf/lib/libc.a(lib_a-bzero.o)
 .debug_abbrev  0x0000000000009fce      0x1d9 ../../libc/xtensa-lx106-elf/lib/libc.a(lib_a-calloc.o)
 .debug_abbrev  0x000000000000a1a7       0x8e ../../libc/xtensa-lx106-elf/lib/libc.a(lib_a-memcmp.o)
 .debug_abbrev  0x000000000000a235      0x22b ../../libc/xtensa-lx106-elf/lib/libc.a(lib_a-mstats.o)
 .debug_abbrev  0x000000000000a460      0x1f9 ../../libc/xtensa-lx106-elf/lib/libc.a(lib_a-nano-callocr.o)
 .debug_abbrev  0x000000000000a659      0x220 ../../libc/xtensa-lx106-elf/lib/libc.a(lib_a-nano-mallinfor.o)
 .debug_abbrev  0x000000000000a879      0x19c ../../libc/xtensa-lx106-elf/lib/libc.a(lib_a-nano-malloptr.o)
 .debug_abbrev  0x000000000000aa15      0x202 ../../libc/xtensa-lx106-elf/lib/libc.a(lib_a-nano-mallstatsr.o)
 .debug_abbrev  0x000000000000ac17      0x1c9 ../../libc/xtensa-lx106-elf/lib/libc.a(lib_a-rand.o)
 .debug_abbrev  0x000000000000ade0      0x1fc ../../libc/xtensa-lx106-elf/lib/libc.a(lib_a-sprintf.o)
 .debug_abbrev  0x000000000000afdc       0x70 ../../libc/xtensa-lx106-elf/lib/libc.a(lib_a-strncmp.o)
 .debug_abbrev  0x000000000000b04c       0x14 ../../libc/xtensa-lx106-elf/lib/libc.a(lib_a-strncpy.o)
 .debug_abbrev  0x000000000000b060       0xb2 ../../libc/xtensa-lx106-elf/lib/libc.a(lib_a-strrchr.o)
 .debug_abbrev  0x000000000000b112      0x1ca ../../libc/xtensa-lx106-elf/lib/libc.a(lib_a-syssbrk.o)
 .debug_abbrev  0x000000000000b2dc      0x1fa ../../libc/xtensa-lx106-elf/lib/libc.a(lib_a-fprintf.o)
 .debug_abbrev  0x000000000000b4d6      0x2c6 ../../libc/xtensa-lx106-elf/lib/libc.a(lib_a-nano-svfprintf.o)
 .debug_abbrev  0x000000000000b79c       0x83 ../../libc/xtensa-lx106-elf/lib/libc.a(lib_a-strchr.o)

.debug_aranges  0x0000000000000000      0xea0
 .debug_aranges
                0x0000000000000000       0x20 ./build/core.a(exception_vectors.o)
 .debug_aranges
                0x0000000000000020       0x50 ./build/core.a(app_main.o)
 .debug_aranges
                0x0000000000000070       0x20 ../../libc/xtensa-lx106-elf/lib/libc.a(lib_a-malloc.o)
 .debug_aranges
                0x0000000000000090       0x20 ../../libc/xtensa-lx106-elf/lib/libc.a(lib_a-memcpy.o)
 .debug_aranges
                0x00000000000000b0       0x20 ../../libc/xtensa-lx106-elf/lib/libc.a(lib_a-memset.o)
 .debug_aranges
                0x00000000000000d0       0x20 ../../libc/xtensa-lx106-elf/lib/libc.a(lib_a-nano-freer.o)
 .debug_aranges
                0x00000000000000f0       0x20 ../../libc/xtensa-lx106-elf/lib/libc.a(lib_a-nano-mallocr.o)
 .debug_aranges
                0x0000000000000110       0x20 ../../libc/xtensa-lx106-elf/lib/libc.a(lib_a-printf.o)
 .debug_aranges
                0x0000000000000130       0x20 ../../libc/xtensa-lx106-elf/lib/libc.a(lib_a-putchar.o)
 .debug_aranges
                0x0000000000000150       0x20 ../../libc/xtensa-lx106-elf/lib/libc.a(lib_a-putc.o)
 .debug_aranges
                0x0000000000000170       0x20 ../../libc/xtensa-lx106-elf/lib/libc.a(lib_a-puts.o)
 .debug_aranges
                0x0000000000000190       0x20 ../../libc/xtensa-lx106-elf/lib/libc.a(lib_a-strlen.o)
 .debug_aranges
                0x00000000000001b0       0x20 ../../libc/xtensa-lx106-elf/lib/libc.a(lib_a-wbuf.o)
 .debug_aranges
                0x00000000000001d0       0x20 ../../libc/xtensa-lx106-elf/lib/libc.a(lib_a-wsetup.o)
 .debug_aranges
                0x00000000000001f0       0x20 ../../libc/xtensa-lx106-elf/lib/libc.a(lock.o)
 .debug_aranges
                0x0000000000000210       0x20 ../../libc/xtensa-lx106-elf/lib/libc.a(lib_a-fflush.o)
 .debug_aranges
                0x0000000000000230       0x20 ../../libc/xtensa-lx106-elf/lib/libc.a(lib_a-findfp.o)
 .debug_aranges
                0x0000000000000250       0x20 ../../libc/xtensa-lx106-elf/lib/libc.a(lib_a-fvwrite.o)
 .debug_aranges
                0x0000000000000270       0x20 ../../libc/xtensa-lx106-elf/lib/libc.a(lib_a-fwalk.o)
 .debug_aranges
                0x0000000000000290       0x18 ../../libc/xtensa-lx106-elf/lib/libc.a(lib_a-impure.o)
 .debug_aranges
                0x00000000000002a8       0x20 ../../libc/xtensa-lx106-elf/lib/libc.a(lib_a-makebuf.o)
 .debug_aranges
                0x00000000000002c8       0x20 ../../libc/xtensa-lx106-elf/lib/libc.a(lib_a-memchr.o)
 .debug_aranges
                0x00000000000002e8       0x20 ../../libc/xtensa-lx106-elf/lib/libc.a(lib_a-memmove.o)
 .debug_aranges
                0x0000000000000308       0x20 ../../libc/xtensa-lx106-elf/lib/libc.a(lib_a-nano-reallocr.o)
 .debug_aranges
                0x0000000000000328       0x20 ../../libc/xtensa-lx106-elf/lib/libc.a(lib_a-nano-vfprintf.o)
 .debug_aranges
                0x0000000000000348       0x20 ../../libc/xtensa-lx106-elf/lib/libc.a(lib_a-stdio.o)
 .debug_aranges
                0x0000000000000368       0x20 ../../libc/xtensa-lx106-elf/lib/libc.a(isatty.o)
 .debug_aranges
                0x0000000000000388       0x20 ../../libc/xtensa-lx106-elf/lib/libc.a(lib_a-fclose.o)
 .debug_aranges
                0x00000000000003a8       0x20 ../../libc/xtensa-lx106-elf/lib/libc.a(lib_a-fputwc.o)
 .debug_aranges
                0x00000000000003c8       0x20 ../../libc/xtensa-lx106-elf/lib/libc.a(lib_a-locale.o)
 .debug_aranges
                0x00000000000003e8       0x20 ../../libc/xtensa-lx106-elf/lib/libc.a(lib_a-nano-msizer.o)
 .debug_aranges
                0x0000000000000408       0x20 ../../libc/xtensa-lx106-elf/lib/libc.a(lib_a-nano-vfprintf_i.o)
 .debug_aranges
                0x0000000000000428       0x20 ../../libc/xtensa-lx106-elf/lib/libc.a(lib_a-strcmp.o)
 .debug_aranges
                0x0000000000000448       0x20 ../../libc/xtensa-lx106-elf/lib/libc.a(lib_a-wcrtomb.o)
 .debug_aranges
                0x0000000000000468       0x20 ../../libc/xtensa-lx106-elf/lib/libc.a(lib_a-wctomb_r.o)
 .debug_aranges
                0x0000000000000488       0x20 ./build/program.a(simple.o)
 .debug_aranges
                0x00000000000004a8       0x40 ./build/freertos.a(queue.o)
 .debug_aranges
                0x00000000000004e8       0x38 ./build/freertos.a(list.o)
 .debug_aranges
                0x0000000000000520       0x70 ./build/freertos.a(tasks.o)
 .debug_aranges
                0x0000000000000590       0x20 ./build/freertos.a(timers.o)
 .debug_aranges
                0x00000000000005b0       0x50 ./build/freertos.a(port.o)
 .debug_aranges
                0x0000000000000600       0x20 ./build/lwip.a(esp_interface.o)
 .debug_aranges
                0x0000000000000620       0x20 ./build/lwip.a(tcpip.o)
 .debug_aranges
                0x0000000000000640       0x20 ./build/lwip.a(dhcp.o)
 .debug_aranges
                0x0000000000000660       0x20 ./build/lwip.a(init.o)
 .debug_aranges
                0x0000000000000680       0x18 ./build/lwip.a(memp.o)
 .debug_aranges
                0x0000000000000698       0x20 ./build/lwip.a(dns.o)
 .debug_aranges
                0x00000000000006b8       0x20 ./build/lwip.a(tcp.o)
 .debug_aranges
                0x00000000000006d8       0x20 ./build/lwip.a(pbuf.o)
 .debug_aranges
                0x00000000000006f8       0x20 ./build/lwip.a(netif.o)
 .debug_aranges
                0x0000000000000718       0x20 ./build/lwip.a(stats.o)
 .debug_aranges
                0x0000000000000738       0x20 ./build/lwip.a(timers.o)
 .debug_aranges
                0x0000000000000758       0x20 ./build/lwip.a(udp.o)
 .debug_aranges
                0x0000000000000778       0x20 ./build/lwip.a(tcp_out.o)
 .debug_aranges
                0x0000000000000798       0x20 ./build/lwip.a(ip_addr.o)
 .debug_aranges
                0x00000000000007b8       0x20 ./build/lwip.a(ip.o)
 .debug_aranges
                0x00000000000007d8       0x20 ./build/lwip.a(inet_chksum.o)
 .debug_aranges
                0x00000000000007f8       0x20 ./build/lwip.a(icmp.o)
 .debug_aranges
                0x0000000000000818       0x20 ./build/lwip.a(etharp.o)
 .debug_aranges
                0x0000000000000838       0x20 ./build/lwip.a(sys_arch.o)
 .debug_aranges
                0x0000000000000858       0x20 ./build/lwip.a(sockets.o)
 .debug_aranges
                0x0000000000000878       0x20 ./build/lwip.a(tcp_in.o)
 .debug_aranges
                0x0000000000000898       0x20 ./build/lwip.a(raw.o)
 .debug_aranges
                0x00000000000008b8       0x20 ./build/lwip.a(ip_frag.o)
 .debug_aranges
                0x00000000000008d8       0x20 ./build/lwip.a(api_lib.o)
 .debug_aranges
                0x00000000000008f8       0x20 ./build/lwip.a(netbuf.o)
 .debug_aranges
                0x0000000000000918       0x20 ./build/lwip.a(api_msg.o)
 .debug_aranges
                0x0000000000000938       0x28 ./build/core.a(sdk_compat.o)
 .debug_aranges
                0x0000000000000960       0x28 ./build/core.a(newlib_syscalls.o)
 .debug_aranges
                0x0000000000000988       0x20 /home/olga/esp/esp-open-sdk/xtensa-lx106-elf/lib/gcc/xtensa-lx106-elf/4.8.2/libgcc.a(_divsi3.o)
 .debug_aranges
                0x00000000000009a8       0x20 /home/olga/esp/esp-open-sdk/xtensa-lx106-elf/lib/gcc/xtensa-lx106-elf/4.8.2/libgcc.a(_modsi3.o)
 .debug_aranges
                0x00000000000009c8       0x20 /home/olga/esp/esp-open-sdk/xtensa-lx106-elf/lib/gcc/xtensa-lx106-elf/4.8.2/libgcc.a(_udivsi3.o)
 .debug_aranges
                0x00000000000009e8       0x20 /home/olga/esp/esp-open-sdk/xtensa-lx106-elf/lib/gcc/xtensa-lx106-elf/4.8.2/libgcc.a(_umodsi3.o)
 .debug_aranges
                0x0000000000000a08       0x20 /home/olga/esp/esp-open-sdk/xtensa-lx106-elf/lib/gcc/xtensa-lx106-elf/4.8.2/libgcc.a(_ashrdi3.o)
 .debug_aranges
                0x0000000000000a28       0x20 /home/olga/esp/esp-open-sdk/xtensa-lx106-elf/lib/gcc/xtensa-lx106-elf/4.8.2/libgcc.a(_addsubsf3.o)
 .debug_aranges
                0x0000000000000a48       0x20 /home/olga/esp/esp-open-sdk/xtensa-lx106-elf/lib/gcc/xtensa-lx106-elf/4.8.2/libgcc.a(_mulsf3.o)
 .debug_aranges
                0x0000000000000a68       0x20 /home/olga/esp/esp-open-sdk/xtensa-lx106-elf/lib/gcc/xtensa-lx106-elf/4.8.2/libgcc.a(_divsf3.o)
 .debug_aranges
                0x0000000000000a88       0x20 /home/olga/esp/esp-open-sdk/xtensa-lx106-elf/lib/gcc/xtensa-lx106-elf/4.8.2/libgcc.a(_fixsfsi.o)
 .debug_aranges
                0x0000000000000aa8       0x20 /home/olga/esp/esp-open-sdk/xtensa-lx106-elf/lib/gcc/xtensa-lx106-elf/4.8.2/libgcc.a(_fixunssfsi.o)
 .debug_aranges
                0x0000000000000ac8       0x20 /home/olga/esp/esp-open-sdk/xtensa-lx106-elf/lib/gcc/xtensa-lx106-elf/4.8.2/libgcc.a(_floatsisf.o)
 .debug_aranges
                0x0000000000000ae8       0x20 /home/olga/esp/esp-open-sdk/xtensa-lx106-elf/lib/gcc/xtensa-lx106-elf/4.8.2/libgcc.a(_addsubdf3.o)
 .debug_aranges
                0x0000000000000b08       0x20 /home/olga/esp/esp-open-sdk/xtensa-lx106-elf/lib/gcc/xtensa-lx106-elf/4.8.2/libgcc.a(_muldf3.o)
 .debug_aranges
                0x0000000000000b28       0x20 /home/olga/esp/esp-open-sdk/xtensa-lx106-elf/lib/gcc/xtensa-lx106-elf/4.8.2/libgcc.a(_divdf3.o)
 .debug_aranges
                0x0000000000000b48       0x20 /home/olga/esp/esp-open-sdk/xtensa-lx106-elf/lib/gcc/xtensa-lx106-elf/4.8.2/libgcc.a(_fixdfsi.o)
 .debug_aranges
                0x0000000000000b68       0x20 /home/olga/esp/esp-open-sdk/xtensa-lx106-elf/lib/gcc/xtensa-lx106-elf/4.8.2/libgcc.a(_floatsidf.o)
 .debug_aranges
                0x0000000000000b88       0x20 /home/olga/esp/esp-open-sdk/xtensa-lx106-elf/lib/gcc/xtensa-lx106-elf/4.8.2/libgcc.a(_truncdfsf2.o)
 .debug_aranges
                0x0000000000000ba8       0x20 /home/olga/esp/esp-open-sdk/xtensa-lx106-elf/lib/gcc/xtensa-lx106-elf/4.8.2/libgcc.a(_extendsfdf2.o)
 .debug_aranges
                0x0000000000000bc8       0x20 /home/olga/esp/esp-open-sdk/xtensa-lx106-elf/lib/gcc/xtensa-lx106-elf/4.8.2/libgcc.a(_muldi3.o)
 .debug_aranges
                0x0000000000000be8       0x20 /home/olga/esp/esp-open-sdk/xtensa-lx106-elf/lib/gcc/xtensa-lx106-elf/4.8.2/libgcc.a(_popcountsi2.o)
 .debug_aranges
                0x0000000000000c08       0x20 /home/olga/esp/esp-open-sdk/xtensa-lx106-elf/lib/gcc/xtensa-lx106-elf/4.8.2/libgcc.a(_divdi3.o)
 .debug_aranges
                0x0000000000000c28       0x20 /home/olga/esp/esp-open-sdk/xtensa-lx106-elf/lib/gcc/xtensa-lx106-elf/4.8.2/libgcc.a(_umoddi3.o)
 .debug_aranges
                0x0000000000000c48       0x20 /home/olga/esp/esp-open-sdk/xtensa-lx106-elf/lib/gcc/xtensa-lx106-elf/4.8.2/libgcc.a(_umulsidi3.o)
 .debug_aranges
                0x0000000000000c68       0x18 /home/olga/esp/esp-open-sdk/xtensa-lx106-elf/lib/gcc/xtensa-lx106-elf/4.8.2/libgcc.a(_popcount_tab.o)
 .debug_aranges
                0x0000000000000c80       0x20 ../../libc/xtensa-lx106-elf/lib/libc.a(lib_a-bzero.o)
 .debug_aranges
                0x0000000000000ca0       0x20 ../../libc/xtensa-lx106-elf/lib/libc.a(lib_a-calloc.o)
 .debug_aranges
                0x0000000000000cc0       0x20 ../../libc/xtensa-lx106-elf/lib/libc.a(lib_a-memcmp.o)
 .debug_aranges
                0x0000000000000ce0       0x20 ../../libc/xtensa-lx106-elf/lib/libc.a(lib_a-mstats.o)
 .debug_aranges
                0x0000000000000d00       0x20 ../../libc/xtensa-lx106-elf/lib/libc.a(lib_a-nano-callocr.o)
 .debug_aranges
                0x0000000000000d20       0x20 ../../libc/xtensa-lx106-elf/lib/libc.a(lib_a-nano-mallinfor.o)
 .debug_aranges
                0x0000000000000d40       0x20 ../../libc/xtensa-lx106-elf/lib/libc.a(lib_a-nano-malloptr.o)
 .debug_aranges
                0x0000000000000d60       0x20 ../../libc/xtensa-lx106-elf/lib/libc.a(lib_a-nano-mallstatsr.o)
 .debug_aranges
                0x0000000000000d80       0x20 ../../libc/xtensa-lx106-elf/lib/libc.a(lib_a-rand.o)
 .debug_aranges
                0x0000000000000da0       0x20 ../../libc/xtensa-lx106-elf/lib/libc.a(lib_a-sprintf.o)
 .debug_aranges
                0x0000000000000dc0       0x20 ../../libc/xtensa-lx106-elf/lib/libc.a(lib_a-strncmp.o)
 .debug_aranges
                0x0000000000000de0       0x20 ../../libc/xtensa-lx106-elf/lib/libc.a(lib_a-strncpy.o)
 .debug_aranges
                0x0000000000000e00       0x20 ../../libc/xtensa-lx106-elf/lib/libc.a(lib_a-strrchr.o)
 .debug_aranges
                0x0000000000000e20       0x20 ../../libc/xtensa-lx106-elf/lib/libc.a(lib_a-syssbrk.o)
 .debug_aranges
                0x0000000000000e40       0x20 ../../libc/xtensa-lx106-elf/lib/libc.a(lib_a-fprintf.o)
 .debug_aranges
                0x0000000000000e60       0x20 ../../libc/xtensa-lx106-elf/lib/libc.a(lib_a-nano-svfprintf.o)
 .debug_aranges
                0x0000000000000e80       0x20 ../../libc/xtensa-lx106-elf/lib/libc.a(lib_a-strchr.o)

.debug_frame    0x0000000000000000     0x4494
 .debug_frame   0x0000000000000000      0x158 ./build/core.a(app_main.o)
 .debug_frame   0x0000000000000158       0x50 ../../libc/xtensa-lx106-elf/lib/libc.a(lib_a-malloc.o)
 .debug_frame   0x00000000000001a8       0x20 ../../libc/xtensa-lx106-elf/lib/libc.a(lib_a-nano-freer.o)
 .debug_frame   0x00000000000001c8       0x3c ../../libc/xtensa-lx106-elf/lib/libc.a(lib_a-nano-mallocr.o)
 .debug_frame   0x0000000000000204       0x50 ../../libc/xtensa-lx106-elf/lib/libc.a(lib_a-printf.o)
 .debug_frame   0x0000000000000254       0x50 ../../libc/xtensa-lx106-elf/lib/libc.a(lib_a-putchar.o)
 .debug_frame   0x00000000000002a4       0x54 ../../libc/xtensa-lx106-elf/lib/libc.a(lib_a-putc.o)
 .debug_frame   0x00000000000002f8       0x58 ../../libc/xtensa-lx106-elf/lib/libc.a(lib_a-puts.o)
 .debug_frame   0x0000000000000350       0x54 ../../libc/xtensa-lx106-elf/lib/libc.a(lib_a-wbuf.o)
 .debug_frame   0x00000000000003a4       0x38 ../../libc/xtensa-lx106-elf/lib/libc.a(lib_a-wsetup.o)
 .debug_frame   0x00000000000003dc       0x30 ../../libc/xtensa-lx106-elf/lib/libc.a(lock.o)
 .debug_frame   0x000000000000040c       0x84 ../../libc/xtensa-lx106-elf/lib/libc.a(lib_a-fflush.o)
 .debug_frame   0x0000000000000490      0x1f4 ../../libc/xtensa-lx106-elf/lib/libc.a(lib_a-findfp.o)
 .debug_frame   0x0000000000000684       0x3c ../../libc/xtensa-lx106-elf/lib/libc.a(lib_a-fvwrite.o)
 .debug_frame   0x00000000000006c0       0x68 ../../libc/xtensa-lx106-elf/lib/libc.a(lib_a-fwalk.o)
 .debug_frame   0x0000000000000728       0x40 ../../libc/xtensa-lx106-elf/lib/libc.a(lib_a-makebuf.o)
 .debug_frame   0x0000000000000768       0x20 ../../libc/xtensa-lx106-elf/lib/libc.a(lib_a-memchr.o)
 .debug_frame   0x0000000000000788       0x20 ../../libc/xtensa-lx106-elf/lib/libc.a(lib_a-memmove.o)
 .debug_frame   0x00000000000007a8       0x38 ../../libc/xtensa-lx106-elf/lib/libc.a(lib_a-nano-reallocr.o)
 .debug_frame   0x00000000000007e0       0xd0 ../../libc/xtensa-lx106-elf/lib/libc.a(lib_a-nano-vfprintf.o)
 .debug_frame   0x00000000000008b0       0xbc ../../libc/xtensa-lx106-elf/lib/libc.a(lib_a-stdio.o)
 .debug_frame   0x000000000000096c       0x30 ../../libc/xtensa-lx106-elf/lib/libc.a(isatty.o)
 .debug_frame   0x000000000000099c       0x58 ../../libc/xtensa-lx106-elf/lib/libc.a(lib_a-fclose.o)
 .debug_frame   0x00000000000009f4       0x94 ../../libc/xtensa-lx106-elf/lib/libc.a(lib_a-fputwc.o)
 .debug_frame   0x0000000000000a88       0xb4 ../../libc/xtensa-lx106-elf/lib/libc.a(lib_a-locale.o)
 .debug_frame   0x0000000000000b3c       0x20 ../../libc/xtensa-lx106-elf/lib/libc.a(lib_a-nano-msizer.o)
 .debug_frame   0x0000000000000b5c       0x68 ../../libc/xtensa-lx106-elf/lib/libc.a(lib_a-nano-vfprintf_i.o)
 .debug_frame   0x0000000000000bc4       0x5c ../../libc/xtensa-lx106-elf/lib/libc.a(lib_a-wcrtomb.o)
 .debug_frame   0x0000000000000c20       0x50 ../../libc/xtensa-lx106-elf/lib/libc.a(lib_a-wctomb_r.o)
 .debug_frame   0x0000000000000c70       0x88 ./build/program.a(simple.o)
 .debug_frame   0x0000000000000cf8      0x260 ./build/freertos.a(queue.o)
 .debug_frame   0x0000000000000f58       0x60 ./build/freertos.a(list.o)
 .debug_frame   0x0000000000000fb8      0x450 ./build/freertos.a(tasks.o)
 .debug_frame   0x0000000000001408      0x15c ./build/freertos.a(timers.o)
 .debug_frame   0x0000000000001564      0x12c ./build/freertos.a(port.o)
 .debug_frame   0x0000000000001690       0x64 ./build/lwip.a(esp_interface.o)
 .debug_frame   0x00000000000016f4      0x1f8 ./build/lwip.a(tcpip.o)
 .debug_frame   0x00000000000018ec      0x344 ./build/lwip.a(dhcp.o)
 .debug_frame   0x0000000000001c30       0x30 ./build/lwip.a(init.o)
 .debug_frame   0x0000000000001c60      0x124 ./build/lwip.a(dns.o)
 .debug_frame   0x0000000000001d84      0x40c ./build/lwip.a(tcp.o)
 .debug_frame   0x0000000000002190      0x22c ./build/lwip.a(pbuf.o)
 .debug_frame   0x00000000000023bc      0x168 ./build/lwip.a(netif.o)
 .debug_frame   0x0000000000002524       0x20 ./build/lwip.a(stats.o)
 .debug_frame   0x0000000000002544      0x168 ./build/lwip.a(timers.o)
 .debug_frame   0x00000000000026ac      0x168 ./build/lwip.a(udp.o)
 .debug_frame   0x0000000000002814      0x224 ./build/lwip.a(tcp_out.o)
 .debug_frame   0x0000000000002a38       0xbc ./build/lwip.a(ip_addr.o)
 .debug_frame   0x0000000000002af4       0xa0 ./build/lwip.a(ip.o)
 .debug_frame   0x0000000000002b94       0xc0 ./build/lwip.a(inet_chksum.o)
 .debug_frame   0x0000000000002c54       0x6c ./build/lwip.a(icmp.o)
 .debug_frame   0x0000000000002cc0      0x200 ./build/lwip.a(etharp.o)
 .debug_frame   0x0000000000002ec0      0x2a8 ./build/lwip.a(sys_arch.o)
 .debug_frame   0x0000000000003168      0x3a0 ./build/lwip.a(sockets.o)
 .debug_frame   0x0000000000003508       0x7c ./build/lwip.a(tcp_in.o)
 .debug_frame   0x0000000000003584      0x104 ./build/lwip.a(raw.o)
 .debug_frame   0x0000000000003688       0x38 ./build/lwip.a(ip_frag.o)
 .debug_frame   0x00000000000036c0      0x2e8 ./build/lwip.a(api_lib.o)
 .debug_frame   0x00000000000039a8      0x124 ./build/lwip.a(netbuf.o)
 .debug_frame   0x0000000000003acc      0x41c ./build/lwip.a(api_msg.o)
 .debug_frame   0x0000000000003ee8       0x58 ./build/core.a(sdk_compat.o)
 .debug_frame   0x0000000000003f40       0x78 ./build/core.a(newlib_syscalls.o)
 .debug_frame   0x0000000000003fb8       0x3c /home/olga/esp/esp-open-sdk/xtensa-lx106-elf/lib/gcc/xtensa-lx106-elf/4.8.2/libgcc.a(_muldi3.o)
 .debug_frame   0x0000000000003ff4       0x20 /home/olga/esp/esp-open-sdk/xtensa-lx106-elf/lib/gcc/xtensa-lx106-elf/4.8.2/libgcc.a(_popcountsi2.o)
 .debug_frame   0x0000000000004014       0x38 /home/olga/esp/esp-open-sdk/xtensa-lx106-elf/lib/gcc/xtensa-lx106-elf/4.8.2/libgcc.a(_divdi3.o)
 .debug_frame   0x000000000000404c       0x3c /home/olga/esp/esp-open-sdk/xtensa-lx106-elf/lib/gcc/xtensa-lx106-elf/4.8.2/libgcc.a(_umoddi3.o)
 .debug_frame   0x0000000000004088       0x20 ../../libc/xtensa-lx106-elf/lib/libc.a(lib_a-bzero.o)
 .debug_frame   0x00000000000040a8       0x30 ../../libc/xtensa-lx106-elf/lib/libc.a(lib_a-calloc.o)
 .debug_frame   0x00000000000040d8       0x20 ../../libc/xtensa-lx106-elf/lib/libc.a(lib_a-memcmp.o)
 .debug_frame   0x00000000000040f8       0xb8 ../../libc/xtensa-lx106-elf/lib/libc.a(lib_a-mstats.o)
 .debug_frame   0x00000000000041b0       0x38 ../../libc/xtensa-lx106-elf/lib/libc.a(lib_a-nano-callocr.o)
 .debug_frame   0x00000000000041e8       0x3c ../../libc/xtensa-lx106-elf/lib/libc.a(lib_a-nano-mallinfor.o)
 .debug_frame   0x0000000000004224       0x20 ../../libc/xtensa-lx106-elf/lib/libc.a(lib_a-nano-malloptr.o)
 .debug_frame   0x0000000000004244       0x34 ../../libc/xtensa-lx106-elf/lib/libc.a(lib_a-nano-mallstatsr.o)
 .debug_frame   0x0000000000004278       0x48 ../../libc/xtensa-lx106-elf/lib/libc.a(lib_a-rand.o)
 .debug_frame   0x00000000000042c0       0x50 ../../libc/xtensa-lx106-elf/lib/libc.a(lib_a-sprintf.o)
 .debug_frame   0x0000000000004310       0x20 ../../libc/xtensa-lx106-elf/lib/libc.a(lib_a-strncmp.o)
 .debug_frame   0x0000000000004330       0x34 ../../libc/xtensa-lx106-elf/lib/libc.a(lib_a-strrchr.o)
 .debug_frame   0x0000000000004364       0x30 ../../libc/xtensa-lx106-elf/lib/libc.a(lib_a-syssbrk.o)
 .debug_frame   0x0000000000004394       0x50 ../../libc/xtensa-lx106-elf/lib/libc.a(lib_a-fprintf.o)
 .debug_frame   0x00000000000043e4       0x90 ../../libc/xtensa-lx106-elf/lib/libc.a(lib_a-nano-svfprintf.o)
 .debug_frame   0x0000000000004474       0x20 ../../libc/xtensa-lx106-elf/lib/libc.a(lib_a-strchr.o)

.debug_loc      0x0000000000000000    0x16b08
 .debug_loc     0x0000000000000000      0x6af ./build/core.a(app_main.o)
 .debug_loc     0x00000000000006af       0x58 ../../libc/xtensa-lx106-elf/lib/libc.a(lib_a-malloc.o)
 .debug_loc     0x0000000000000707      0x13d ../../libc/xtensa-lx106-elf/lib/libc.a(lib_a-nano-freer.o)
 .debug_loc     0x0000000000000844      0x222 ../../libc/xtensa-lx106-elf/lib/libc.a(lib_a-nano-mallocr.o)
 .debug_loc     0x0000000000000a66       0x97 ../../libc/xtensa-lx106-elf/lib/libc.a(lib_a-printf.o)
 .debug_loc     0x0000000000000afd       0x8c ../../libc/xtensa-lx106-elf/lib/libc.a(lib_a-putchar.o)
 .debug_loc     0x0000000000000b89      0x129 ../../libc/xtensa-lx106-elf/lib/libc.a(lib_a-putc.o)
 .debug_loc     0x0000000000000cb2       0xe0 ../../libc/xtensa-lx106-elf/lib/libc.a(lib_a-puts.o)
 .debug_loc     0x0000000000000d92      0x121 ../../libc/xtensa-lx106-elf/lib/libc.a(lib_a-wbuf.o)
 .debug_loc     0x0000000000000eb3       0x6b ../../libc/xtensa-lx106-elf/lib/libc.a(lib_a-wsetup.o)
 .debug_loc     0x0000000000000f1e       0x21 ../../libc/xtensa-lx106-elf/lib/libc.a(lock.o)
 .debug_loc     0x0000000000000f3f      0x260 ../../libc/xtensa-lx106-elf/lib/libc.a(lib_a-fflush.o)
 .debug_loc     0x000000000000119f      0x20a ../../libc/xtensa-lx106-elf/lib/libc.a(lib_a-findfp.o)
 .debug_loc     0x00000000000013a9      0x4c3 ../../libc/xtensa-lx106-elf/lib/libc.a(lib_a-fvwrite.o)
 .debug_loc     0x000000000000186c      0x14a ../../libc/xtensa-lx106-elf/lib/libc.a(lib_a-fwalk.o)
 .debug_loc     0x00000000000019b6      0x104 ../../libc/xtensa-lx106-elf/lib/libc.a(lib_a-makebuf.o)
 .debug_loc     0x0000000000001aba       0x86 ../../libc/xtensa-lx106-elf/lib/libc.a(lib_a-memchr.o)
 .debug_loc     0x0000000000001b40      0x121 ../../libc/xtensa-lx106-elf/lib/libc.a(lib_a-memmove.o)
 .debug_loc     0x0000000000001c61      0x13c ../../libc/xtensa-lx106-elf/lib/libc.a(lib_a-nano-reallocr.o)
 .debug_loc     0x0000000000001d9d      0x4be ../../libc/xtensa-lx106-elf/lib/libc.a(lib_a-nano-vfprintf.o)
 .debug_loc     0x000000000000225b      0x231 ../../libc/xtensa-lx106-elf/lib/libc.a(lib_a-stdio.o)
 .debug_loc     0x000000000000248c       0x42 ../../libc/xtensa-lx106-elf/lib/libc.a(isatty.o)
 .debug_loc     0x00000000000024ce       0xec ../../libc/xtensa-lx106-elf/lib/libc.a(lib_a-fclose.o)
 .debug_loc     0x00000000000025ba      0x21b ../../libc/xtensa-lx106-elf/lib/libc.a(lib_a-fputwc.o)
 .debug_loc     0x00000000000027d5      0x12f ../../libc/xtensa-lx106-elf/lib/libc.a(lib_a-locale.o)
 .debug_loc     0x0000000000002904       0xac ../../libc/xtensa-lx106-elf/lib/libc.a(lib_a-nano-msizer.o)
 .debug_loc     0x00000000000029b0      0x5c0 ../../libc/xtensa-lx106-elf/lib/libc.a(lib_a-nano-vfprintf_i.o)
 .debug_loc     0x0000000000002f70      0x18a ../../libc/xtensa-lx106-elf/lib/libc.a(lib_a-wcrtomb.o)
 .debug_loc     0x00000000000030fa      0x150 ../../libc/xtensa-lx106-elf/lib/libc.a(lib_a-wctomb_r.o)
 .debug_loc     0x000000000000324a       0x5a ./build/program.a(simple.o)
 .debug_loc     0x00000000000032a4      0xa5f ./build/freertos.a(queue.o)
 .debug_loc     0x0000000000003d03       0x7a ./build/freertos.a(list.o)
 .debug_loc     0x0000000000003d7d      0xe52 ./build/freertos.a(tasks.o)
 .debug_loc     0x0000000000004bcf      0x7f0 ./build/freertos.a(timers.o)
 .debug_loc     0x00000000000053bf      0x1f4 ./build/freertos.a(port.o)
 .debug_loc     0x00000000000055b3       0xf5 ./build/lwip.a(esp_interface.o)
 .debug_loc     0x00000000000056a8      0x543 ./build/lwip.a(tcpip.o)
 .debug_loc     0x0000000000005beb     0x18e6 ./build/lwip.a(dhcp.o)
 .debug_loc     0x00000000000074d1      0x827 ./build/lwip.a(dns.o)
 .debug_loc     0x0000000000007cf8     0x110c ./build/lwip.a(tcp.o)
 .debug_loc     0x0000000000008e04      0xec9 ./build/lwip.a(pbuf.o)
 .debug_loc     0x0000000000009ccd      0x5a2 ./build/lwip.a(netif.o)
 .debug_loc     0x000000000000a26f      0x2e3 ./build/lwip.a(timers.o)
 .debug_loc     0x000000000000a552      0x8f9 ./build/lwip.a(udp.o)
 .debug_loc     0x000000000000ae4b     0x1158 ./build/lwip.a(tcp_out.o)
 .debug_loc     0x000000000000bfa3      0x573 ./build/lwip.a(ip_addr.o)
 .debug_loc     0x000000000000c516      0x5d5 ./build/lwip.a(ip.o)
 .debug_loc     0x000000000000caeb      0x947 ./build/lwip.a(inet_chksum.o)
 .debug_loc     0x000000000000d432      0x20c ./build/lwip.a(icmp.o)
 .debug_loc     0x000000000000d63e      0xeb3 ./build/lwip.a(etharp.o)
 .debug_loc     0x000000000000e4f1      0x783 ./build/lwip.a(sys_arch.o)
 .debug_loc     0x000000000000ec74     0x28e6 ./build/lwip.a(sockets.o)
 .debug_loc     0x000000000001155a      0x78b ./build/lwip.a(tcp_in.o)
 .debug_loc     0x0000000000011ce5      0x42d ./build/lwip.a(raw.o)
 .debug_loc     0x0000000000012112      0x386 ./build/lwip.a(ip_frag.o)
 .debug_loc     0x0000000000012498      0xb28 ./build/lwip.a(api_lib.o)
 .debug_loc     0x0000000000012fc0      0x200 ./build/lwip.a(netbuf.o)
 .debug_loc     0x00000000000131c0     0x11eb ./build/lwip.a(api_msg.o)
 .debug_loc     0x00000000000143ab       0x57 ./build/core.a(sdk_compat.o)
 .debug_loc     0x0000000000014402      0x2b2 ./build/core.a(newlib_syscalls.o)
 .debug_loc     0x00000000000146b4       0x50 /home/olga/esp/esp-open-sdk/xtensa-lx106-elf/lib/gcc/xtensa-lx106-elf/4.8.2/libgcc.a(_muldi3.o)
 .debug_loc     0x0000000000014704       0x77 /home/olga/esp/esp-open-sdk/xtensa-lx106-elf/lib/gcc/xtensa-lx106-elf/4.8.2/libgcc.a(_popcountsi2.o)
 .debug_loc     0x000000000001477b      0xb87 /home/olga/esp/esp-open-sdk/xtensa-lx106-elf/lib/gcc/xtensa-lx106-elf/4.8.2/libgcc.a(_divdi3.o)
 .debug_loc     0x0000000000015302      0xa45 /home/olga/esp/esp-open-sdk/xtensa-lx106-elf/lib/gcc/xtensa-lx106-elf/4.8.2/libgcc.a(_umoddi3.o)
 .debug_loc     0x0000000000015d47       0x83 ../../libc/xtensa-lx106-elf/lib/libc.a(lib_a-bzero.o)
 .debug_loc     0x0000000000015dca       0x58 ../../libc/xtensa-lx106-elf/lib/libc.a(lib_a-calloc.o)
 .debug_loc     0x0000000000015e22      0x12d ../../libc/xtensa-lx106-elf/lib/libc.a(lib_a-memcmp.o)
 .debug_loc     0x0000000000015f4f       0xdc ../../libc/xtensa-lx106-elf/lib/libc.a(lib_a-mstats.o)
 .debug_loc     0x000000000001602b       0x8c ../../libc/xtensa-lx106-elf/lib/libc.a(lib_a-nano-callocr.o)
 .debug_loc     0x00000000000160b7       0xa9 ../../libc/xtensa-lx106-elf/lib/libc.a(lib_a-nano-mallinfor.o)
 .debug_loc     0x0000000000016160       0x21 ../../libc/xtensa-lx106-elf/lib/libc.a(lib_a-nano-malloptr.o)
 .debug_loc     0x0000000000016181       0x2c ../../libc/xtensa-lx106-elf/lib/libc.a(lib_a-nano-mallstatsr.o)
 .debug_loc     0x00000000000161ad       0x52 ../../libc/xtensa-lx106-elf/lib/libc.a(lib_a-rand.o)
 .debug_loc     0x00000000000161ff       0xe2 ../../libc/xtensa-lx106-elf/lib/libc.a(lib_a-sprintf.o)
 .debug_loc     0x00000000000162e1       0x8c ../../libc/xtensa-lx106-elf/lib/libc.a(lib_a-strncmp.o)
 .debug_loc     0x000000000001636d       0xd0 ../../libc/xtensa-lx106-elf/lib/libc.a(lib_a-strrchr.o)
 .debug_loc     0x000000000001643d       0x2c ../../libc/xtensa-lx106-elf/lib/libc.a(lib_a-syssbrk.o)
 .debug_loc     0x0000000000016469       0xbb ../../libc/xtensa-lx106-elf/lib/libc.a(lib_a-fprintf.o)
 .debug_loc     0x0000000000016524      0x58f ../../libc/xtensa-lx106-elf/lib/libc.a(lib_a-nano-svfprintf.o)
 .debug_loc     0x0000000000016ab3       0x55 ../../libc/xtensa-lx106-elf/lib/libc.a(lib_a-strchr.o)

.debug_ranges   0x0000000000000000      0xe40
 .debug_ranges  0x0000000000000000       0xb0 ./build/core.a(app_main.o)
 .debug_ranges  0x00000000000000b0       0x20 ../../libc/xtensa-lx106-elf/lib/libc.a(lib_a-nano-mallocr.o)
 .debug_ranges  0x00000000000000d0       0x20 ../../libc/xtensa-lx106-elf/lib/libc.a(lib_a-wsetup.o)
 .debug_ranges  0x00000000000000f0       0x48 ../../libc/xtensa-lx106-elf/lib/libc.a(lib_a-nano-vfprintf_i.o)
 .debug_ranges  0x0000000000000138       0x70 ./build/freertos.a(queue.o)
 .debug_ranges  0x00000000000001a8       0x28 ./build/freertos.a(list.o)
 .debug_ranges  0x00000000000001d0      0x1c8 ./build/freertos.a(tasks.o)
 .debug_ranges  0x0000000000000398       0x48 ./build/freertos.a(timers.o)
 .debug_ranges  0x00000000000003e0       0x88 ./build/freertos.a(port.o)
 .debug_ranges  0x0000000000000468      0x2b8 ./build/lwip.a(dhcp.o)
 .debug_ranges  0x0000000000000720       0x48 ./build/lwip.a(dns.o)
 .debug_ranges  0x0000000000000768      0x150 ./build/lwip.a(tcp.o)
 .debug_ranges  0x00000000000008b8       0x60 ./build/lwip.a(pbuf.o)
 .debug_ranges  0x0000000000000918       0x48 ./build/lwip.a(netif.o)
 .debug_ranges  0x0000000000000960      0x110 ./build/lwip.a(tcp_out.o)
 .debug_ranges  0x0000000000000a70       0x30 ./build/lwip.a(ip.o)
 .debug_ranges  0x0000000000000aa0       0x28 ./build/lwip.a(icmp.o)
 .debug_ranges  0x0000000000000ac8       0xf0 ./build/lwip.a(etharp.o)
 .debug_ranges  0x0000000000000bb8       0xf0 ./build/lwip.a(sockets.o)
 .debug_ranges  0x0000000000000ca8       0x28 ./build/lwip.a(tcp_in.o)
 .debug_ranges  0x0000000000000cd0       0x18 ./build/lwip.a(api_msg.o)
 .debug_ranges  0x0000000000000ce8       0x18 ./build/core.a(sdk_compat.o)
 .debug_ranges  0x0000000000000d00       0x48 ./build/core.a(newlib_syscalls.o)
 .debug_ranges  0x0000000000000d48       0x60 /home/olga/esp/esp-open-sdk/xtensa-lx106-elf/lib/gcc/xtensa-lx106-elf/4.8.2/libgcc.a(_divdi3.o)
 .debug_ranges  0x0000000000000da8       0x98 /home/olga/esp/esp-open-sdk/xtensa-lx106-elf/lib/gcc/xtensa-lx106-elf/4.8.2/libgcc.a(_umoddi3.o)

.debug_str      0x0000000000000000     0x6faa
 .debug_str     0x0000000000000000     0x10f1 ./build/core.a(app_main.o)
                                       0x1244 (size before relaxing)
 .debug_str     0x00000000000010f1      0x404 ../../libc/xtensa-lx106-elf/lib/libc.a(lib_a-malloc.o)
                                        0x530 (size before relaxing)
 .debug_str     0x00000000000014f5       0x8d ../../libc/xtensa-lx106-elf/lib/libc.a(lib_a-nano-freer.o)
                                        0x574 (size before relaxing)
 .debug_str     0x0000000000001582       0x50 ../../libc/xtensa-lx106-elf/lib/libc.a(lib_a-nano-mallocr.o)
                                        0x5a9 (size before relaxing)
 .debug_str     0x00000000000015d2       0xbf ../../libc/xtensa-lx106-elf/lib/libc.a(lib_a-printf.o)
                                        0x55f (size before relaxing)
 .debug_str     0x0000000000001691       0x3e ../../libc/xtensa-lx106-elf/lib/libc.a(lib_a-putchar.o)
                                        0x524 (size before relaxing)
 .debug_str     0x00000000000016cf       0x7a ../../libc/xtensa-lx106-elf/lib/libc.a(lib_a-putc.o)
                                        0x566 (size before relaxing)
 .debug_str     0x0000000000001749       0x80 ../../libc/xtensa-lx106-elf/lib/libc.a(lib_a-puts.o)
                                        0x59b (size before relaxing)
 .debug_str     0x00000000000017c9       0x46 ../../libc/xtensa-lx106-elf/lib/libc.a(lib_a-wbuf.o)
                                        0x540 (size before relaxing)
 .debug_str     0x000000000000180f       0x37 ../../libc/xtensa-lx106-elf/lib/libc.a(lib_a-wsetup.o)
                                        0x53b (size before relaxing)
 .debug_str     0x0000000000001846       0x9a ../../libc/xtensa-lx106-elf/lib/libc.a(lock.o)
                                         0xd7 (size before relaxing)
 .debug_str     0x00000000000018e0       0x6d ../../libc/xtensa-lx106-elf/lib/libc.a(lib_a-fflush.o)
                                        0x5ac (size before relaxing)
 .debug_str     0x000000000000194d      0x197 ../../libc/xtensa-lx106-elf/lib/libc.a(lib_a-findfp.o)
                                        0x70d (size before relaxing)
 .debug_str     0x0000000000001ae4       0x63 ../../libc/xtensa-lx106-elf/lib/libc.a(lib_a-fvwrite.o)
                                        0x5ae (size before relaxing)
 .debug_str     0x0000000000001b47       0x38 ../../libc/xtensa-lx106-elf/lib/libc.a(lib_a-fwalk.o)
                                        0x521 (size before relaxing)
 .debug_str     0x0000000000001b7f       0x7d ../../libc/xtensa-lx106-elf/lib/libc.a(lib_a-impure.o)
                                        0x51c (size before relaxing)
 .debug_str     0x0000000000001bfc      0x117 ../../libc/xtensa-lx106-elf/lib/libc.a(lib_a-makebuf.o)
                                        0x61e (size before relaxing)
 .debug_str     0x0000000000001d13       0x7c ../../libc/xtensa-lx106-elf/lib/libc.a(lib_a-memchr.o)
                                        0x153 (size before relaxing)
 .debug_str     0x0000000000001d8f       0x35 ../../libc/xtensa-lx106-elf/lib/libc.a(lib_a-memmove.o)
                                        0x15e (size before relaxing)
 .debug_str     0x0000000000001dc4       0x23 ../../libc/xtensa-lx106-elf/lib/libc.a(lib_a-nano-reallocr.o)
                                        0x57c (size before relaxing)
 .debug_str     0x0000000000001de7      0x104 ../../libc/xtensa-lx106-elf/lib/libc.a(lib_a-nano-vfprintf.o)
                                        0x6eb (size before relaxing)
 .debug_str     0x0000000000001eeb       0x89 ../../libc/xtensa-lx106-elf/lib/libc.a(lib_a-stdio.o)
                                        0x577 (size before relaxing)
 .debug_str     0x0000000000001f74       0x32 ../../libc/xtensa-lx106-elf/lib/libc.a(isatty.o)
                                        0x5f7 (size before relaxing)
 .debug_str     0x0000000000001fa6       0x56 ../../libc/xtensa-lx106-elf/lib/libc.a(lib_a-fclose.o)
                                        0x5af (size before relaxing)
 .debug_str     0x0000000000001ffc       0x52 ../../libc/xtensa-lx106-elf/lib/libc.a(lib_a-fputwc.o)
                                        0x5ac (size before relaxing)
 .debug_str     0x000000000000204e      0x241 ../../libc/xtensa-lx106-elf/lib/libc.a(lib_a-locale.o)
                                        0x779 (size before relaxing)
 .debug_str     0x000000000000228f        0xf ../../libc/xtensa-lx106-elf/lib/libc.a(lib_a-nano-msizer.o)
                                        0x55a (size before relaxing)
 .debug_str     0x000000000000229e       0x84 ../../libc/xtensa-lx106-elf/lib/libc.a(lib_a-nano-vfprintf_i.o)
                                        0x62c (size before relaxing)
 .debug_str     0x0000000000002322       0x44 ../../libc/xtensa-lx106-elf/lib/libc.a(lib_a-wcrtomb.o)
                                        0x54d (size before relaxing)
 .debug_str     0x0000000000002366       0x4d ../../libc/xtensa-lx106-elf/lib/libc.a(lib_a-wctomb_r.o)
                                        0x55c (size before relaxing)
 .debug_str     0x00000000000023b3       0xec ./build/program.a(simple.o)
                                        0x341 (size before relaxing)
 .debug_str     0x000000000000249f      0x534 ./build/freertos.a(queue.o)
                                        0x78b (size before relaxing)
 .debug_str     0x00000000000029d3       0xd0 ./build/freertos.a(list.o)
                                        0x315 (size before relaxing)
 .debug_str     0x0000000000002aa3      0x67f ./build/freertos.a(tasks.o)
                                        0xbbe (size before relaxing)
 .debug_str     0x0000000000003122      0x398 ./build/freertos.a(timers.o)
                                        0x82e (size before relaxing)
 .debug_str     0x00000000000034ba      0x294 ./build/freertos.a(port.o)
                                        0x5cc (size before relaxing)
 .debug_str     0x000000000000374e      0x140 ./build/lwip.a(esp_interface.o)
                                        0x39d (size before relaxing)
 .debug_str     0x000000000000388e      0x5da ./build/lwip.a(tcpip.o)
                                        0x956 (size before relaxing)
 .debug_str     0x0000000000003e68      0x604 ./build/lwip.a(dhcp.o)
                                        0xa00 (size before relaxing)
 .debug_str     0x000000000000446c       0xa1 ./build/lwip.a(init.o)
                                        0x24d (size before relaxing)
 .debug_str     0x000000000000450d       0x4f ./build/lwip.a(memp.o)
                                        0x2e1 (size before relaxing)
 .debug_str     0x000000000000455c      0x235 ./build/lwip.a(dns.o)
                                        0x666 (size before relaxing)
 .debug_str     0x0000000000004791      0x692 ./build/lwip.a(tcp.o)
                                        0xb9c (size before relaxing)
 .debug_str     0x0000000000004e23      0x1fd ./build/lwip.a(pbuf.o)
                                        0x617 (size before relaxing)
 .debug_str     0x0000000000005020       0xfa ./build/lwip.a(netif.o)
                                        0x949 (size before relaxing)
 .debug_str     0x000000000000511a       0x50 ./build/lwip.a(stats.o)
                                        0x305 (size before relaxing)
 .debug_str     0x000000000000516a      0x102 ./build/lwip.a(timers.o)
                                        0x7ed (size before relaxing)
 .debug_str     0x000000000000526c      0x1bd ./build/lwip.a(udp.o)
                                        0x89a (size before relaxing)
 .debug_str     0x0000000000005429      0x19e ./build/lwip.a(tcp_out.o)
                                        0xa1f (size before relaxing)
 .debug_str     0x00000000000055c7       0xae ./build/lwip.a(ip_addr.o)
                                        0x344 (size before relaxing)
 .debug_str     0x0000000000005675       0xdc ./build/lwip.a(ip.o)
                                        0x7c3 (size before relaxing)
 .debug_str     0x0000000000005751       0xc0 ./build/lwip.a(inet_chksum.o)
                                        0x2a3 (size before relaxing)
 .debug_str     0x0000000000005811       0x8c ./build/lwip.a(icmp.o)
                                        0x58b (size before relaxing)
 .debug_str     0x000000000000589d      0x309 ./build/lwip.a(etharp.o)
                                        0x9fd (size before relaxing)
 .debug_str     0x0000000000005ba6      0x1d0 ./build/lwip.a(sys_arch.o)
                                        0x79c (size before relaxing)
 .debug_str     0x0000000000005d76      0x5b6 ./build/lwip.a(sockets.o)
                                        0xeac (size before relaxing)
 .debug_str     0x000000000000632c      0x131 ./build/lwip.a(tcp_in.o)
                                        0xa62 (size before relaxing)
 .debug_str     0x000000000000645d       0xa2 ./build/lwip.a(raw.o)
                                        0x58e (size before relaxing)
 .debug_str     0x00000000000064ff       0x72 ./build/lwip.a(ip_frag.o)
                                        0x483 (size before relaxing)
 .debug_str     0x0000000000006571       0xfd ./build/lwip.a(api_lib.o)
                                        0xb4c (size before relaxing)
 .debug_str     0x000000000000666e       0x98 ./build/lwip.a(netbuf.o)
                                        0x41f (size before relaxing)
 .debug_str     0x0000000000006706      0x1e1 ./build/lwip.a(api_msg.o)
                                        0xd5e (size before relaxing)
 .debug_str     0x00000000000068e7       0x79 ./build/core.a(sdk_compat.o)
                                        0x1b6 (size before relaxing)
 .debug_str     0x0000000000006960       0x96 ./build/core.a(newlib_syscalls.o)
                                        0x5a4 (size before relaxing)
 .debug_str     0x00000000000069f6      0x182 /home/olga/esp/esp-open-sdk/xtensa-lx106-elf/lib/gcc/xtensa-lx106-elf/4.8.2/libgcc.a(_muldi3.o)
                                        0x206 (size before relaxing)
 .debug_str     0x0000000000006b78       0x25 /home/olga/esp/esp-open-sdk/xtensa-lx106-elf/lib/gcc/xtensa-lx106-elf/4.8.2/libgcc.a(_popcountsi2.o)
                                        0x1e7 (size before relaxing)
 .debug_str     0x0000000000006b9d       0xc0 /home/olga/esp/esp-open-sdk/xtensa-lx106-elf/lib/gcc/xtensa-lx106-elf/4.8.2/libgcc.a(_divdi3.o)
                                        0x25c (size before relaxing)
 .debug_str     0x0000000000006c5d        0xa /home/olga/esp/esp-open-sdk/xtensa-lx106-elf/lib/gcc/xtensa-lx106-elf/4.8.2/libgcc.a(_umoddi3.o)
                                        0x25d (size before relaxing)
 .debug_str     0x0000000000000000      0x1d1 /home/olga/esp/esp-open-sdk/xtensa-lx106-elf/lib/gcc/xtensa-lx106-elf/4.8.2/libgcc.a(_popcount_tab.o)
 .debug_str     0x0000000000006c67       0x30 ../../libc/xtensa-lx106-elf/lib/libc.a(lib_a-bzero.o)
                                        0x148 (size before relaxing)
 .debug_str     0x0000000000006c97       0x35 ../../libc/xtensa-lx106-elf/lib/libc.a(lib_a-calloc.o)
                                        0x51c (size before relaxing)
 .debug_str     0x0000000000006ccc       0x2b ../../libc/xtensa-lx106-elf/lib/libc.a(lib_a-memcmp.o)
                                        0x143 (size before relaxing)
 .debug_str     0x0000000000006cf7       0x81 ../../libc/xtensa-lx106-elf/lib/libc.a(lib_a-mstats.o)
                                        0x5b7 (size before relaxing)
 .debug_str     0x0000000000000000       0x81 ../../libc/xtensa-lx106-elf/lib/libc.a(lib_a-nano-callocr.o)
                                        0x538 (size before relaxing)
 .debug_str     0x0000000000006d78       0x38 ../../libc/xtensa-lx106-elf/lib/libc.a(lib_a-nano-mallinfor.o)
                                        0x601 (size before relaxing)
 .debug_str     0x0000000000006db0       0x21 ../../libc/xtensa-lx106-elf/lib/libc.a(lib_a-nano-malloptr.o)
                                        0x52f (size before relaxing)
 .debug_str     0x0000000000000000      0x5b0 ../../libc/xtensa-lx106-elf/lib/libc.a(lib_a-nano-mallstatsr.o)
 .debug_str     0x0000000000006dd1       0x2f ../../libc/xtensa-lx106-elf/lib/libc.a(lib_a-rand.o)
                                        0x513 (size before relaxing)
 .debug_str     0x0000000000006e00       0x4b ../../libc/xtensa-lx106-elf/lib/libc.a(lib_a-sprintf.o)
                                        0x563 (size before relaxing)
 .debug_str     0x0000000000006e4b       0x34 ../../libc/xtensa-lx106-elf/lib/libc.a(lib_a-strncmp.o)
                                        0x145 (size before relaxing)
 .debug_str     0x0000000000006e7f       0x3b ../../libc/xtensa-lx106-elf/lib/libc.a(lib_a-strrchr.o)
                                        0x14a (size before relaxing)
 .debug_str     0x0000000000006eba       0x78 ../../libc/xtensa-lx106-elf/lib/libc.a(lib_a-syssbrk.o)
                                        0x520 (size before relaxing)
 .debug_str     0x0000000000006f32       0x36 ../../libc/xtensa-lx106-elf/lib/libc.a(lib_a-fprintf.o)
                                        0x562 (size before relaxing)
 .debug_str     0x0000000000006f68       0x17 ../../libc/xtensa-lx106-elf/lib/libc.a(lib_a-nano-svfprintf.o)
                                        0x67f (size before relaxing)
 .debug_str     0x0000000000006f7f       0x2b ../../libc/xtensa-lx106-elf/lib/libc.a(lib_a-strchr.o)
                                        0x13c (size before relaxing)
