Archive member included to satisfy reference by file (symbol)

/home/andreas/workspace/RIOT-2014.12/examples/hello-world/bin/native/core.a(kernel_init.o)
                              /home/andreas/workspace/RIOT-2014.12/examples/hello-world/bin/native/cpu/startup.o (kernel_init)
/home/andreas/workspace/RIOT-2014.12/examples/hello-world/bin/native/core.a(thread.o)
                              /home/andreas/workspace/RIOT-2014.12/examples/hello-world/bin/native/core.a(kernel_init.o) (thread_create)
/home/andreas/workspace/RIOT-2014.12/examples/hello-world/bin/native/core.a(hwtimer.o)
                              /home/andreas/workspace/RIOT-2014.12/examples/hello-world/bin/native/core.a(kernel_init.o) (hwtimer_init)
/home/andreas/workspace/RIOT-2014.12/examples/hello-world/bin/native/core.a(lifo.o)
                              /home/andreas/workspace/RIOT-2014.12/examples/hello-world/bin/native/core.a(hwtimer.o) (lifo_empty)
/home/andreas/workspace/RIOT-2014.12/examples/hello-world/bin/native/core.a(mutex.o)
                              /home/andreas/workspace/RIOT-2014.12/examples/hello-world/bin/native/core.a(hwtimer.o) (mutex_lock)
/home/andreas/workspace/RIOT-2014.12/examples/hello-world/bin/native/core.a(priority_queue.o)
                              /home/andreas/workspace/RIOT-2014.12/examples/hello-world/bin/native/core.a(mutex.o) (priority_queue_remove_head)
/home/andreas/workspace/RIOT-2014.12/examples/hello-world/bin/native/core.a(sched.o)
                              /home/andreas/workspace/RIOT-2014.12/examples/hello-world/bin/native/core.a(thread.o) (sched_num_threads)
/home/andreas/workspace/RIOT-2014.12/examples/hello-world/bin/native/core.a(bitarithm.o)
                              /home/andreas/workspace/RIOT-2014.12/examples/hello-world/bin/native/core.a(sched.o) (bitarithm_lsb)
/home/andreas/workspace/RIOT-2014.12/examples/hello-world/bin/native/core.a(clist.o)
                              /home/andreas/workspace/RIOT-2014.12/examples/hello-world/bin/native/core.a(sched.o) (clist_add)
/home/andreas/workspace/RIOT-2014.12/examples/hello-world/bin/native/cpu.a(atomic_cpu.o)
                              /home/andreas/workspace/RIOT-2014.12/examples/hello-world/bin/native/core.a(mutex.o) (atomic_set_return)
/home/andreas/workspace/RIOT-2014.12/examples/hello-world/bin/native/cpu.a(hwtimer_cpu.o)
                              /home/andreas/workspace/RIOT-2014.12/examples/hello-world/bin/native/core.a(hwtimer.o) (hwtimer_arch_now)
/home/andreas/workspace/RIOT-2014.12/examples/hello-world/bin/native/cpu.a(irq_cpu.o)
                              /home/andreas/workspace/RIOT-2014.12/examples/hello-world/bin/native/core.a(kernel_init.o) (disableIRQ)
/home/andreas/workspace/RIOT-2014.12/examples/hello-world/bin/native/cpu.a(lpm_cpu.o)
                              /home/andreas/workspace/RIOT-2014.12/examples/hello-world/bin/native/core.a(kernel_init.o) (lpm_set)
/home/andreas/workspace/RIOT-2014.12/examples/hello-world/bin/native/cpu.a(native_cpu.o)
                              /home/andreas/workspace/RIOT-2014.12/examples/hello-world/bin/native/core.a(thread.o) (thread_stack_init)
/home/andreas/workspace/RIOT-2014.12/examples/hello-world/bin/native/cpu.a(syscalls.o)
                              /home/andreas/workspace/RIOT-2014.12/examples/hello-world/bin/native/cpu.a(irq_cpu.o) (real_read)
/home/andreas/workspace/RIOT-2014.12/examples/hello-world/bin/native/cpu.a(tramp.o)
                              /home/andreas/workspace/RIOT-2014.12/examples/hello-world/bin/native/cpu.a(irq_cpu.o) (_native_sig_leave_tramp)
/home/andreas/workspace/RIOT-2014.12/examples/hello-world/bin/native/native_base.a(board_init.o)
                              /home/andreas/workspace/RIOT-2014.12/examples/hello-world/bin/native/cpu/startup.o (board_init)
/home/andreas/workspace/RIOT-2014.12/examples/hello-world/bin/native/native_base.a(native-led.o)
                              /home/andreas/workspace/RIOT-2014.12/examples/hello-world/bin/native/native_base.a(board_init.o) (_native_LED_GREEN_OFF)
/home/andreas/workspace/RIOT-2014.12/examples/hello-world/bin/native/hello-world.a(main.o)
                              /usr/lib/gcc/x86_64-linux-gnu/4.8/../../../../lib32/crt1.o (main)
/home/andreas/workspace/RIOT-2014.12/examples/hello-world/bin/native/auto_init.a(auto_init.o)
                              /home/andreas/workspace/RIOT-2014.12/examples/hello-world/bin/native/core.a(kernel_init.o) (auto_init)
/usr/lib32/libc_nonshared.a(elf-init.oS)
                              /usr/lib/gcc/x86_64-linux-gnu/4.8/../../../../lib32/crt1.o (__libc_csu_init)

As-needed library included to satisfy reference by file (symbol)

libdl.so.2                    /home/andreas/workspace/RIOT-2014.12/examples/hello-world/bin/native/cpu.a(syscalls.o) (dlsym@@GLIBC_2.0)

Allocating common symbols
Common symbol       size              file

real_execve         0x4               /home/andreas/workspace/RIOT-2014.12/examples/hello-world/bin/native/cpu.a(syscalls.o)
real_setitimer      0x4               /home/andreas/workspace/RIOT-2014.12/examples/hello-world/bin/native/cpu.a(syscalls.o)
real_open           0x4               /home/andreas/workspace/RIOT-2014.12/examples/hello-world/bin/native/cpu.a(syscalls.o)
__end_stack         0x2000            /home/andreas/workspace/RIOT-2014.12/examples/hello-world/bin/native/cpu.a(native_cpu.o)
real_srandom        0x4               /home/andreas/workspace/RIOT-2014.12/examples/hello-world/bin/native/cpu.a(syscalls.o)
real_fread          0x4               /home/andreas/workspace/RIOT-2014.12/examples/hello-world/bin/native/cpu.a(syscalls.o)
real_getifaddrs     0x4               /home/andreas/workspace/RIOT-2014.12/examples/hello-world/bin/native/cpu.a(syscalls.o)
__isr_stack         0x2000            /home/andreas/workspace/RIOT-2014.12/examples/hello-world/bin/native/cpu.a(irq_cpu.o)
_native_null_out_file
                    0x4               /home/andreas/workspace/RIOT-2014.12/examples/hello-world/bin/native/cpu/startup.o
sigalt_stk          0x2000            /home/andreas/workspace/RIOT-2014.12/examples/hello-world/bin/native/cpu.a(irq_cpu.o)
real_freeifaddrs    0x4               /home/andreas/workspace/RIOT-2014.12/examples/hello-world/bin/native/cpu.a(syscalls.o)
real_getpid         0x4               /home/andreas/workspace/RIOT-2014.12/examples/hello-world/bin/native/cpu.a(syscalls.o)
_native_in_calloc   0x4               /home/andreas/workspace/RIOT-2014.12/examples/hello-world/bin/native/cpu.a(syscalls.o)
sched_runqueues     0x40              /home/andreas/workspace/RIOT-2014.12/examples/hello-world/bin/native/core.a(sched.o)
real_fork           0x4               /home/andreas/workspace/RIOT-2014.12/examples/hello-world/bin/native/cpu.a(syscalls.o)
sched_active_thread
                    0x4               /home/andreas/workspace/RIOT-2014.12/examples/hello-world/bin/native/core.a(sched.o)
_native_id          0x4               /home/andreas/workspace/RIOT-2014.12/examples/hello-world/bin/native/cpu/startup.o
real_free           0x4               /home/andreas/workspace/RIOT-2014.12/examples/hello-world/bin/native/cpu.a(syscalls.o)
real_accept         0x4               /home/andreas/workspace/RIOT-2014.12/examples/hello-world/bin/native/cpu.a(syscalls.o)
end_context         0x15c             /home/andreas/workspace/RIOT-2014.12/examples/hello-world/bin/native/cpu.a(native_cpu.o)
real_fopen          0x4               /home/andreas/workspace/RIOT-2014.12/examples/hello-world/bin/native/cpu.a(syscalls.o)
_sig_pipefd         0x8               /home/andreas/workspace/RIOT-2014.12/examples/hello-world/bin/native/cpu.a(irq_cpu.o)
real_select         0x4               /home/andreas/workspace/RIOT-2014.12/examples/hello-world/bin/native/cpu.a(syscalls.o)
real_creat          0x4               /home/andreas/workspace/RIOT-2014.12/examples/hello-world/bin/native/cpu.a(syscalls.o)
_native_null_in_pipe
                    0x8               /home/andreas/workspace/RIOT-2014.12/examples/hello-world/bin/native/cpu/startup.o
native_interrupts_enabled
                    0x4               /home/andreas/workspace/RIOT-2014.12/examples/hello-world/bin/native/cpu.a(irq_cpu.o)
real_getaddrinfo    0x4               /home/andreas/workspace/RIOT-2014.12/examples/hello-world/bin/native/cpu.a(syscalls.o)
real_socket         0x4               /home/andreas/workspace/RIOT-2014.12/examples/hello-world/bin/native/cpu.a(syscalls.o)
real_ioctl          0x4               /home/andreas/workspace/RIOT-2014.12/examples/hello-world/bin/native/cpu.a(syscalls.o)
real_calloc         0x4               /home/andreas/workspace/RIOT-2014.12/examples/hello-world/bin/native/cpu.a(syscalls.o)
_native_saved_eip   0x4               /home/andreas/workspace/RIOT-2014.12/examples/hello-world/bin/native/cpu.a(irq_cpu.o)
real_setsockopt     0x4               /home/andreas/workspace/RIOT-2014.12/examples/hello-world/bin/native/cpu.a(syscalls.o)
real_unlink         0x4               /home/andreas/workspace/RIOT-2014.12/examples/hello-world/bin/native/cpu.a(syscalls.o)
_native_isr_ctx     0x4               /home/andreas/workspace/RIOT-2014.12/examples/hello-world/bin/native/cpu.a(irq_cpu.o)
_native_sigpend     0x4               /home/andreas/workspace/RIOT-2014.12/examples/hello-world/bin/native/cpu.a(irq_cpu.o)
real_realloc        0x4               /home/andreas/workspace/RIOT-2014.12/examples/hello-world/bin/native/cpu.a(syscalls.o)
real_listen         0x4               /home/andreas/workspace/RIOT-2014.12/examples/hello-world/bin/native/cpu.a(syscalls.o)
_native_in_isr      0x4               /home/andreas/workspace/RIOT-2014.12/examples/hello-world/bin/native/cpu.a(irq_cpu.o)
real_read           0x4               /home/andreas/workspace/RIOT-2014.12/examples/hello-world/bin/native/cpu.a(syscalls.o)
real_pause          0x4               /home/andreas/workspace/RIOT-2014.12/examples/hello-world/bin/native/cpu.a(syscalls.o)
real_printf         0x4               /home/andreas/workspace/RIOT-2014.12/examples/hello-world/bin/native/cpu.a(syscalls.o)
sched_context_switch_request
                    0x4               /home/andreas/workspace/RIOT-2014.12/examples/hello-world/bin/native/core.a(sched.o)
real_ferror         0x4               /home/andreas/workspace/RIOT-2014.12/examples/hello-world/bin/native/cpu.a(syscalls.o)
real_clock_gettime  0x4               /home/andreas/workspace/RIOT-2014.12/examples/hello-world/bin/native/cpu.a(syscalls.o)
real_bind           0x4               /home/andreas/workspace/RIOT-2014.12/examples/hello-world/bin/native/cpu.a(syscalls.o)
real_random         0x4               /home/andreas/workspace/RIOT-2014.12/examples/hello-world/bin/native/cpu.a(syscalls.o)
sched_threads       0x84              /home/andreas/workspace/RIOT-2014.12/examples/hello-world/bin/native/core.a(sched.o)
real_clearerr       0x4               /home/andreas/workspace/RIOT-2014.12/examples/hello-world/bin/native/cpu.a(syscalls.o)
native_isr_context  0x15c             /home/andreas/workspace/RIOT-2014.12/examples/hello-world/bin/native/cpu.a(irq_cpu.o)
real_pipe           0x4               /home/andreas/workspace/RIOT-2014.12/examples/hello-world/bin/native/cpu.a(syscalls.o)
_native_in_syscall  0x4               /home/andreas/workspace/RIOT-2014.12/examples/hello-world/bin/native/cpu.a(irq_cpu.o)
real_write          0x4               /home/andreas/workspace/RIOT-2014.12/examples/hello-world/bin/native/cpu.a(syscalls.o)
_native_argv        0x4               /home/andreas/workspace/RIOT-2014.12/examples/hello-world/bin/native/cpu/startup.o
real_close          0x4               /home/andreas/workspace/RIOT-2014.12/examples/hello-world/bin/native/cpu.a(syscalls.o)
real_malloc         0x4               /home/andreas/workspace/RIOT-2014.12/examples/hello-world/bin/native/cpu.a(syscalls.o)
_progname           0x4               /home/andreas/workspace/RIOT-2014.12/examples/hello-world/bin/native/cpu/startup.o
_native_pid         0x4               /home/andreas/workspace/RIOT-2014.12/examples/hello-world/bin/native/cpu/startup.o
real_dup2           0x4               /home/andreas/workspace/RIOT-2014.12/examples/hello-world/bin/native/cpu.a(syscalls.o)
_native_cur_ctx     0x4               /home/andreas/workspace/RIOT-2014.12/examples/hello-world/bin/native/cpu.a(irq_cpu.o)
real_feof           0x4               /home/andreas/workspace/RIOT-2014.12/examples/hello-world/bin/native/cpu.a(syscalls.o)
real_exit           0x4               /home/andreas/workspace/RIOT-2014.12/examples/hello-world/bin/native/cpu.a(syscalls.o)
real_freeaddrinfo   0x4               /home/andreas/workspace/RIOT-2014.12/examples/hello-world/bin/native/cpu.a(syscalls.o)
real_gai_strerror   0x4               /home/andreas/workspace/RIOT-2014.12/examples/hello-world/bin/native/cpu.a(syscalls.o)

Discarded input sections

 .note.GNU-stack
                0x0000000000000000        0x0 /usr/lib/gcc/x86_64-linux-gnu/4.8/../../../../lib32/crt1.o
 .note.GNU-stack
                0x0000000000000000        0x0 /usr/lib/gcc/x86_64-linux-gnu/4.8/../../../../lib32/crti.o
 .note.GNU-stack
                0x0000000000000000        0x0 /usr/lib/gcc/x86_64-linux-gnu/4.8/32/crtbegin.o
 .note.GNU-stack
                0x0000000000000000        0x0 /home/andreas/workspace/RIOT-2014.12/examples/hello-world/bin/native/cpu/startup.o
 .note.GNU-stack
                0x0000000000000000        0x0 /home/andreas/workspace/RIOT-2014.12/examples/hello-world/bin/native/core.a(kernel_init.o)
 .note.GNU-stack
                0x0000000000000000        0x0 /home/andreas/workspace/RIOT-2014.12/examples/hello-world/bin/native/core.a(thread.o)
 .note.GNU-stack
                0x0000000000000000        0x0 /home/andreas/workspace/RIOT-2014.12/examples/hello-world/bin/native/core.a(hwtimer.o)
 .note.GNU-stack
                0x0000000000000000        0x0 /home/andreas/workspace/RIOT-2014.12/examples/hello-world/bin/native/core.a(lifo.o)
 .note.GNU-stack
                0x0000000000000000        0x0 /home/andreas/workspace/RIOT-2014.12/examples/hello-world/bin/native/core.a(mutex.o)
 .note.GNU-stack
                0x0000000000000000        0x0 /home/andreas/workspace/RIOT-2014.12/examples/hello-world/bin/native/core.a(priority_queue.o)
 .note.GNU-stack
                0x0000000000000000        0x0 /home/andreas/workspace/RIOT-2014.12/examples/hello-world/bin/native/core.a(sched.o)
 .note.GNU-stack
                0x0000000000000000        0x0 /home/andreas/workspace/RIOT-2014.12/examples/hello-world/bin/native/core.a(bitarithm.o)
 .note.GNU-stack
                0x0000000000000000        0x0 /home/andreas/workspace/RIOT-2014.12/examples/hello-world/bin/native/core.a(clist.o)
 .note.GNU-stack
                0x0000000000000000        0x0 /home/andreas/workspace/RIOT-2014.12/examples/hello-world/bin/native/cpu.a(atomic_cpu.o)
 .note.GNU-stack
                0x0000000000000000        0x0 /home/andreas/workspace/RIOT-2014.12/examples/hello-world/bin/native/cpu.a(hwtimer_cpu.o)
 .note.GNU-stack
                0x0000000000000000        0x0 /home/andreas/workspace/RIOT-2014.12/examples/hello-world/bin/native/cpu.a(irq_cpu.o)
 .note.GNU-stack
                0x0000000000000000        0x0 /home/andreas/workspace/RIOT-2014.12/examples/hello-world/bin/native/cpu.a(lpm_cpu.o)
 .note.GNU-stack
                0x0000000000000000        0x0 /home/andreas/workspace/RIOT-2014.12/examples/hello-world/bin/native/cpu.a(native_cpu.o)
 .note.GNU-stack
                0x0000000000000000        0x0 /home/andreas/workspace/RIOT-2014.12/examples/hello-world/bin/native/cpu.a(syscalls.o)
 .note.GNU-stack
                0x0000000000000000        0x0 /home/andreas/workspace/RIOT-2014.12/examples/hello-world/bin/native/native_base.a(board_init.o)
 .note.GNU-stack
                0x0000000000000000        0x0 /home/andreas/workspace/RIOT-2014.12/examples/hello-world/bin/native/native_base.a(native-led.o)
 .note.GNU-stack
                0x0000000000000000        0x0 /home/andreas/workspace/RIOT-2014.12/examples/hello-world/bin/native/hello-world.a(main.o)
 .note.GNU-stack
                0x0000000000000000        0x0 /home/andreas/workspace/RIOT-2014.12/examples/hello-world/bin/native/auto_init.a(auto_init.o)
 .group         0x0000000000000000        0x8 /usr/lib32/libc_nonshared.a(elf-init.oS)
 .text.__x86.get_pc_thunk.bx
                0x0000000000000000        0x4 /usr/lib32/libc_nonshared.a(elf-init.oS)
 .note.GNU-stack
                0x0000000000000000        0x0 /usr/lib32/libc_nonshared.a(elf-init.oS)
 .note.GNU-stack
                0x0000000000000000        0x0 /usr/lib/gcc/x86_64-linux-gnu/4.8/32/crtend.o
 .note.GNU-stack
                0x0000000000000000        0x0 /usr/lib/gcc/x86_64-linux-gnu/4.8/../../../../lib32/crtn.o

Memory Configuration

Name             Origin             Length             Attributes
*default*        0x0000000000000000 0xffffffffffffffff

Linker script and memory map

LOAD /usr/lib/gcc/x86_64-linux-gnu/4.8/../../../../lib32/crt1.o
LOAD /usr/lib/gcc/x86_64-linux-gnu/4.8/../../../../lib32/crti.o
LOAD /usr/lib/gcc/x86_64-linux-gnu/4.8/32/crtbegin.o
LOAD /home/andreas/workspace/RIOT-2014.12/examples/hello-world/bin/native/cpu/startup.o
START GROUP
LOAD /home/andreas/workspace/RIOT-2014.12/examples/hello-world/bin/native/auto_init.a
LOAD /home/andreas/workspace/RIOT-2014.12/examples/hello-world/bin/native/core.a
LOAD /home/andreas/workspace/RIOT-2014.12/examples/hello-world/bin/native/cpu.a
LOAD /home/andreas/workspace/RIOT-2014.12/examples/hello-world/bin/native/periph.a
LOAD /home/andreas/workspace/RIOT-2014.12/examples/hello-world/bin/native/sys.a
LOAD /home/andreas/workspace/RIOT-2014.12/examples/hello-world/bin/native/native_base.a
LOAD /home/andreas/workspace/RIOT-2014.12/examples/hello-world/bin/native/hello-world.a
LOAD /usr/lib/gcc/x86_64-linux-gnu/4.8/../../../../lib32/libm.so
END GROUP
LOAD /usr/lib/gcc/x86_64-linux-gnu/4.8/../../../../lib32/libdl.so
LOAD /usr/lib/gcc/x86_64-linux-gnu/4.8/32/libgcc.a
LOAD /usr/lib/gcc/x86_64-linux-gnu/4.8/32/libgcc_s.so
LOAD /usr/lib/gcc/x86_64-linux-gnu/4.8/../../../../lib32/libc.so
START GROUP
LOAD /lib32/libc.so.6
LOAD /usr/lib32/libc_nonshared.a
LOAD /lib32/ld-linux.so.2
END GROUP
LOAD /usr/lib/gcc/x86_64-linux-gnu/4.8/32/libgcc.a
LOAD /usr/lib/gcc/x86_64-linux-gnu/4.8/32/libgcc_s.so
LOAD /usr/lib/gcc/x86_64-linux-gnu/4.8/32/crtend.o
LOAD /usr/lib/gcc/x86_64-linux-gnu/4.8/../../../../lib32/crtn.o
                0x0000000008048000                PROVIDE (__executable_start, 0x8048000)
                0x0000000008048154                . = (0x8048000 + SIZEOF_HEADERS)

.interp         0x0000000008048154       0x13
 *(.interp)
 .interp        0x0000000008048154       0x13 /usr/lib/gcc/x86_64-linux-gnu/4.8/../../../../lib32/crt1.o

.note.ABI-tag   0x0000000008048168       0x20
 .note.ABI-tag  0x0000000008048168       0x20 /usr/lib/gcc/x86_64-linux-gnu/4.8/../../../../lib32/crt1.o

.note.gnu.build-id
                0x0000000008048188       0x24
 *(.note.gnu.build-id)
 .note.gnu.build-id
                0x0000000008048188       0x24 /usr/lib/gcc/x86_64-linux-gnu/4.8/../../../../lib32/crt1.o

.hash
 *(.hash)

.gnu.hash       0x00000000080481ac       0xac
 *(.gnu.hash)
 .gnu.hash      0x00000000080481ac       0xac /usr/lib/gcc/x86_64-linux-gnu/4.8/../../../../lib32/crt1.o

.dynsym         0x0000000008048258      0x300
 *(.dynsym)
 .dynsym        0x0000000008048258      0x300 /usr/lib/gcc/x86_64-linux-gnu/4.8/../../../../lib32/crt1.o

.dynstr         0x0000000008048558      0x1ee
 *(.dynstr)
 .dynstr        0x0000000008048558      0x1ee /usr/lib/gcc/x86_64-linux-gnu/4.8/../../../../lib32/crt1.o

.gnu.version    0x0000000008048746       0x60
 *(.gnu.version)
 .gnu.version   0x0000000008048746       0x60 /usr/lib/gcc/x86_64-linux-gnu/4.8/../../../../lib32/crt1.o

.gnu.version_d  0x00000000080487a8        0x0
 *(.gnu.version_d)
 .gnu.version_d
                0x0000000000000000        0x0 /usr/lib/gcc/x86_64-linux-gnu/4.8/../../../../lib32/crt1.o

.gnu.version_r  0x00000000080487a8       0x60
 *(.gnu.version_r)
 .gnu.version_r
                0x00000000080487a8       0x60 /usr/lib/gcc/x86_64-linux-gnu/4.8/../../../../lib32/crt1.o

.rel.dyn        0x0000000008048808        0x8
 *(.rel.init)
 *(.rel.text .rel.text.* .rel.gnu.linkonce.t.*)
 .rel.text      0x0000000000000000        0x0 /usr/lib/gcc/x86_64-linux-gnu/4.8/../../../../lib32/crt1.o
 *(.rel.fini)
 *(.rel.rodata .rel.rodata.* .rel.gnu.linkonce.r.*)
 *(.rel.data.rel.ro .rel.data.rel.ro.* .rel.gnu.linkonce.d.rel.ro.*)
 *(.rel.data .rel.data.* .rel.gnu.linkonce.d.*)
 *(.rel.tdata .rel.tdata.* .rel.gnu.linkonce.td.*)
 *(.rel.tbss .rel.tbss.* .rel.gnu.linkonce.tb.*)
 *(.rel.ctors)
 *(.rel.dtors)
 *(.rel.got)
 .rel.got       0x0000000008048808        0x8 /usr/lib/gcc/x86_64-linux-gnu/4.8/../../../../lib32/crt1.o
 *(.rel.bss .rel.bss.* .rel.gnu.linkonce.b.*)
 .rel.bss       0x0000000000000000        0x0 /usr/lib/gcc/x86_64-linux-gnu/4.8/../../../../lib32/crt1.o
 *(.rel.ifunc)

.rel.plt        0x0000000008048810       0xd0
 *(.rel.plt)
 .rel.plt       0x0000000008048810       0xd0 /usr/lib/gcc/x86_64-linux-gnu/4.8/../../../../lib32/crt1.o
                0x00000000080488e0                PROVIDE (__rel_iplt_start, .)
 *(.rel.iplt)
 .rel.iplt      0x0000000000000000        0x0 /usr/lib/gcc/x86_64-linux-gnu/4.8/../../../../lib32/crt1.o
                0x00000000080488e0                PROVIDE (__rel_iplt_end, .)

.init           0x00000000080488e0       0x23
 *(SORT(.init))
 .init          0x00000000080488e0       0x1e /usr/lib/gcc/x86_64-linux-gnu/4.8/../../../../lib32/crti.o
                0x00000000080488e0                _init
 .init          0x00000000080488fe        0x5 /usr/lib/gcc/x86_64-linux-gnu/4.8/../../../../lib32/crtn.o

.plt            0x0000000008048910      0x1b0
 *(.plt)
 .plt           0x0000000008048910      0x1b0 /usr/lib/gcc/x86_64-linux-gnu/4.8/../../../../lib32/crt1.o
                0x0000000008048920                strcmp@@GLIBC_2.0
                0x0000000008048930                sigprocmask@@GLIBC_2.0
                0x0000000008048940                setcontext@@GLIBC_2.0
                0x0000000008048950                __stack_chk_fail@@GLIBC_2.4
                0x0000000008048960                sigpending@@GLIBC_2.0
                0x0000000008048970                sigismember@@GLIBC_2.0
                0x0000000008048980                strsignal@@GLIBC_2.0
                0x0000000008048990                strerror@@GLIBC_2.0
                0x00000000080489b0                strlen@@GLIBC_2.0
                0x00000000080489c0                __libc_start_main@@GLIBC_2.0
                0x00000000080489d0                sigdelset@@GLIBC_2.0
                0x00000000080489e0                atol@@GLIBC_2.0
                0x00000000080489f0                getcontext@@GLIBC_2.1
                0x0000000008048a00                sigaddset@@GLIBC_2.0
                0x0000000008048a10                dlsym@@GLIBC_2.0
                0x0000000008048a20                sigfillset@@GLIBC_2.0
                0x0000000008048a30                memset@@GLIBC_2.0
                0x0000000008048a40                snprintf@@GLIBC_2.0
                0x0000000008048a50                swapcontext@@GLIBC_2.1
                0x0000000008048a60                __errno_location@@GLIBC_2.0
                0x0000000008048a70                makecontext@@GLIBC_2.1
                0x0000000008048a80                sigemptyset@@GLIBC_2.0
                0x0000000008048a90                vsnprintf@@GLIBC_2.0
                0x0000000008048aa0                sigaction@@GLIBC_2.0
                0x0000000008048ab0                sigaltstack@@GLIBC_2.0
 *(.iplt)
 .iplt          0x0000000000000000        0x0 /usr/lib/gcc/x86_64-linux-gnu/4.8/../../../../lib32/crt1.o

.text           0x0000000008048ac0     0x4a42
 *(.text.unlikely .text.*_unlikely .text.unlikely.*)
 *(.text.exit .text.exit.*)
 *(.text.startup .text.startup.*)
 *(.text.hot .text.hot.*)
 *(.text .stub .text.* .gnu.linkonce.t.*)
 .text          0x0000000008048ac0       0x22 /usr/lib/gcc/x86_64-linux-gnu/4.8/../../../../lib32/crt1.o
                0x0000000008048ac0                _start
 .text          0x0000000008048ae2        0x0 /usr/lib/gcc/x86_64-linux-gnu/4.8/../../../../lib32/crti.o
 *fill*         0x0000000008048ae2        0xe 
 .gnu.linkonce.t.__x86.get_pc_thunk.bx
                0x0000000008048af0        0x4 /usr/lib/gcc/x86_64-linux-gnu/4.8/../../../../lib32/crti.o
                0x0000000008048af0                __x86.get_pc_thunk.bx
 *fill*         0x0000000008048af4        0xc 
 .text          0x0000000008048b00       0xbd /usr/lib/gcc/x86_64-linux-gnu/4.8/32/crtbegin.o
 .text          0x0000000008048bbd      0x77d /home/andreas/workspace/RIOT-2014.12/examples/hello-world/bin/native/cpu/startup.o
                0x0000000008048bbd                _native_null_in
                0x0000000008048c58                _native_log_stdout
                0x0000000008048dd6                _native_log_stderr
                0x0000000008048f3f                daemonize
                0x0000000008049055                usage_exit
 .text          0x000000000804933a      0x151 /home/andreas/workspace/RIOT-2014.12/examples/hello-world/bin/native/core.a(kernel_init.o)
                0x00000000080493af                kernel_init
 .text          0x000000000804948b      0x5e7 /home/andreas/workspace/RIOT-2014.12/examples/hello-world/bin/native/core.a(thread.o)
                0x0000000008049561                thread_get
                0x00000000080495ae                thread_getstatus
                0x00000000080495ff                thread_getname
                0x000000000804964c                thread_sleep
                0x00000000080496a8                thread_wakeup
                0x0000000008049743                thread_yield
                0x00000000080497ae                thread_measure_stack_free
                0x0000000008049800                thread_create
 .text          0x0000000008049a72      0x4a7 /home/andreas/workspace/RIOT-2014.12/examples/hello-world/bin/native/core.a(hwtimer.o)
                0x0000000008049b0a                hwtimer_spin
                0x0000000008049b65                hwtimer_init
                0x0000000008049b95                hwtimer_init_comp
                0x0000000008049c0c                hwtimer_active
                0x0000000008049c44                hwtimer_now
                0x0000000008049c6d                hwtimer_wait
                0x0000000008049def                hwtimer_set
                0x0000000008049e46                hwtimer_set_absolute
                0x0000000008049e9d                hwtimer_remove
 .text          0x0000000008049f19      0x1a6 /home/andreas/workspace/RIOT-2014.12/examples/hello-world/bin/native/core.a(lifo.o)
                0x0000000008049f19                lifo_empty
                0x0000000008049f51                lifo_init
                0x0000000008049fab                lifo_insert
                0x000000000804a053                lifo_get
 .text          0x000000000804a0bf      0x26e /home/andreas/workspace/RIOT-2014.12/examples/hello-world/bin/native/core.a(mutex.o)
                0x000000000804a0bf                mutex_trylock
                0x000000000804a104                mutex_lock
                0x000000000804a1f9                mutex_unlock
                0x000000000804a28f                mutex_unlock_and_sleep
 .text          0x000000000804a32d      0x12d /home/andreas/workspace/RIOT-2014.12/examples/hello-world/bin/native/core.a(priority_queue.o)
                0x000000000804a32d                priority_queue_remove
                0x000000000804a395                priority_queue_remove_head
                0x000000000804a3da                priority_queue_add
 .text          0x000000000804a45a      0x287 /home/andreas/workspace/RIOT-2014.12/examples/hello-world/bin/native/core.a(sched.o)
                0x000000000804a45a                sched_run
                0x000000000804a504                sched_set_status
                0x000000000804a60b                sched_switch
                0x000000000804a687                sched_task_exit
 .text          0x000000000804a6e1       0xd3 /home/andreas/workspace/RIOT-2014.12/examples/hello-world/bin/native/core.a(bitarithm.o)
                0x000000000804a6e1                bitarithm_msb
                0x000000000804a725                bitarithm_lsb
                0x000000000804a76b                bitarithm_bits_set
 .text          0x000000000804a7b4      0x114 /home/andreas/workspace/RIOT-2014.12/examples/hello-world/bin/native/core.a(clist.o)
                0x000000000804a7b4                clist_add
                0x000000000804a854                clist_remove
 .text          0x000000000804a8c8       0x56 /home/andreas/workspace/RIOT-2014.12/examples/hello-world/bin/native/cpu.a(atomic_cpu.o)
                0x000000000804a8c8                atomic_set_return
 .text          0x000000000804a91e      0x736 /home/andreas/workspace/RIOT-2014.12/examples/hello-world/bin/native/cpu.a(hwtimer_cpu.o)
                0x000000000804a91e                timeval_subtract
                0x000000000804aa56                ticks2tv
                0x000000000804aabf                tv2ticks
                0x000000000804aafc                ts2ticks
                0x000000000804ab55                schedule_timer
                0x000000000804ad3d                hwtimer_isr_timer
                0x000000000804ada3                hwtimer_arch_enable_interrupt
                0x000000000804addc                hwtimer_arch_disable_interrupt
                0x000000000804ae0d                hwtimer_arch_unset
                0x000000000804ae4d                hwtimer_arch_set
                0x000000000804ae9f                hwtimer_arch_set_absolute
                0x000000000804af03                hwtimer_arch_now
                0x000000000804af90                native_hwtimer_pre_init
                0x000000000804afcd                hwtimer_arch_init
 .text          0x000000000804b054      0xdae /home/andreas/workspace/RIOT-2014.12/examples/hello-world/bin/native/cpu.a(irq_cpu.o)
                0x000000000804b054                print_thread_sigmask
                0x000000000804b14b                print_sigmasks
                0x000000000804b1d4                native_print_signals
                0x000000000804b38d                disableIRQ
                0x000000000804b40a                enableIRQ
                0x000000000804b4aa                restoreIRQ
                0x000000000804b4e7                inISR
                0x000000000804b510                dINT
                0x000000000804b539                eINT
                0x000000000804b562                _native_popsig
                0x000000000804b5f8                native_irq_handler
                0x000000000804b679                isr_set_sigmask
                0x000000000804b6c4                native_isr_entry
                0x000000000804b822                register_interrupt
                0x000000000804b948                unregister_interrupt
                0x000000000804bae8                native_interrupt_init
 .text          0x000000000804be02      0x1d3 /home/andreas/workspace/RIOT-2014.12/examples/hello-world/bin/native/cpu.a(lpm_cpu.o)
                0x000000000804be02                lpm_init
                0x000000000804be31                _native_lpm_sleep
                0x000000000804be91                lpm_set
                0x000000000804bf29                lpm_awake
                0x000000000804bf58                lpm_begin_awake
                0x000000000804bf7d                lpm_end_awake
                0x000000000804bfac                lpm_get
 .text          0x000000000804bfd5      0x473 /home/andreas/workspace/RIOT-2014.12/examples/hello-world/bin/native/cpu.a(native_cpu.o)
                0x000000000804bfd5                reboot_arch
                0x000000000804c049                thread_print_stack
                0x000000000804c06e                thread_stack_init
                0x000000000804c16a                isr_cpu_switch_context_exit
                0x000000000804c1e9                cpu_switch_context_exit
                0x000000000804c2a2                isr_thread_yield
                0x000000000804c30d                thread_yield_higher
                0x000000000804c3c5                native_cpu_init
 .text          0x000000000804c448      0xe36 /home/andreas/workspace/RIOT-2014.12/examples/hello-world/bin/native/cpu.a(syscalls.o)
                0x000000000804c448                _native_syscall_enter
                0x000000000804c479                _native_syscall_leave
                0x000000000804c574                malloc
                0x000000000804c5bb                free
                0x000000000804c5fc                calloc
                0x000000000804c69d                realloc
                0x000000000804c6f1                _native_read
                0x000000000804c752                _native_write
                0x000000000804c7b3                putchar
                0x000000000804c7fd                puts
                0x000000000804c85b                make_message
                0x000000000804c928                printf
                0x000000000804c9ba                vprintf
                0x000000000804ca4c                vwarn
                0x000000000804cb9d                vwarnx
                0x000000000804cc9e                verr
                0x000000000804cce0                verrx
                0x000000000804cd22                warn
                0x000000000804cd64                warnx
                0x000000000804cda6                err
                0x000000000804cde2                errx
                0x000000000804ce1e                getpid
                0x000000000804ce53                _native_init_syscalls
 .text          0x000000000804d27e       0x2e /home/andreas/workspace/RIOT-2014.12/examples/hello-world/bin/native/cpu.a(tramp.o)
                0x000000000804d27e                _native_sig_leave_tramp
 .text          0x000000000804d2ac       0x3a /home/andreas/workspace/RIOT-2014.12/examples/hello-world/bin/native/native_base.a(board_init.o)
                0x000000000804d2ac                board_init
 .text          0x000000000804d2e6      0x120 /home/andreas/workspace/RIOT-2014.12/examples/hello-world/bin/native/native_base.a(native-led.o)
                0x000000000804d2e6                _native_LED_GREEN_OFF
                0x000000000804d316                _native_LED_GREEN_ON
                0x000000000804d346                _native_LED_GREEN_TOGGLE
                0x000000000804d376                _native_LED_RED_OFF
                0x000000000804d3a6                _native_LED_RED_ON
                0x000000000804d3d6                _native_LED_RED_TOGGLE
 .text          0x000000000804d406       0x62 /home/andreas/workspace/RIOT-2014.12/examples/hello-world/bin/native/hello-world.a(main.o)
                0x000000000804d406                main
 .text          0x000000000804d468       0x24 /home/andreas/workspace/RIOT-2014.12/examples/hello-world/bin/native/auto_init.a(auto_init.o)
                0x000000000804d468                auto_init
 *fill*         0x000000000804d48c        0x4 
 .text          0x000000000804d490       0x72 /usr/lib32/libc_nonshared.a(elf-init.oS)
                0x000000000804d490                __libc_csu_init
                0x000000000804d500                __libc_csu_fini
 .text          0x000000000804d502        0x0 /usr/lib/gcc/x86_64-linux-gnu/4.8/32/crtend.o
 .text          0x000000000804d502        0x0 /usr/lib/gcc/x86_64-linux-gnu/4.8/../../../../lib32/crtn.o
 *(.gnu.warning)

.fini           0x000000000804d504       0x14
 *(SORT(.fini))
 .fini          0x000000000804d504        0xf /usr/lib/gcc/x86_64-linux-gnu/4.8/../../../../lib32/crti.o
                0x000000000804d504                _fini
 .fini          0x000000000804d513        0x5 /usr/lib/gcc/x86_64-linux-gnu/4.8/../../../../lib32/crtn.o
                0x000000000804d518                PROVIDE (__etext, .)
                0x000000000804d518                PROVIDE (_etext, .)
                0x000000000804d518                PROVIDE (etext, .)

.rodata         0x000000000804d518      0xd82
 *(.rodata .rodata.* .gnu.linkonce.r.*)
 .rodata        0x000000000804d518        0x4 /usr/lib/gcc/x86_64-linux-gnu/4.8/../../../../lib32/crt1.o
                0x000000000804d518                _fp_hw
 .rodata.cst4   0x000000000804d51c        0x4 /usr/lib/gcc/x86_64-linux-gnu/4.8/../../../../lib32/crt1.o
                0x000000000804d51c                _IO_stdin_used
 .rodata        0x000000000804d520      0x37f /home/andreas/workspace/RIOT-2014.12/examples/hello-world/bin/native/cpu/startup.o
 *fill*         0x000000000804d89f        0x1 
 .rodata        0x000000000804d8a0       0xf6 /home/andreas/workspace/RIOT-2014.12/examples/hello-world/bin/native/core.a(kernel_init.o)
 .rodata        0x000000000804d996       0x11 /home/andreas/workspace/RIOT-2014.12/examples/hello-world/bin/native/core.a(hwtimer.o)
 *fill*         0x000000000804d9a7        0x1 
 .rodata        0x000000000804d9a8       0x50 /home/andreas/workspace/RIOT-2014.12/examples/hello-world/bin/native/core.a(lifo.o)
 .rodata        0x000000000804d9f8       0x3c /home/andreas/workspace/RIOT-2014.12/examples/hello-world/bin/native/cpu.a(hwtimer_cpu.o)
 .rodata        0x000000000804da34      0x3fc /home/andreas/workspace/RIOT-2014.12/examples/hello-world/bin/native/cpu.a(irq_cpu.o)
 .rodata        0x000000000804de30       0x80 /home/andreas/workspace/RIOT-2014.12/examples/hello-world/bin/native/cpu.a(lpm_cpu.o)
 .rodata        0x000000000804deb0      0x1b1 /home/andreas/workspace/RIOT-2014.12/examples/hello-world/bin/native/cpu.a(native_cpu.o)
 *fill*         0x000000000804e061        0x3 
 .rodata        0x000000000804e064      0x164 /home/andreas/workspace/RIOT-2014.12/examples/hello-world/bin/native/cpu.a(syscalls.o)
 .rodata        0x000000000804e1c8       0x1f /home/andreas/workspace/RIOT-2014.12/examples/hello-world/bin/native/native_base.a(board_init.o)
 .rodata        0x000000000804e1e7       0x52 /home/andreas/workspace/RIOT-2014.12/examples/hello-world/bin/native/native_base.a(native-led.o)
 *fill*         0x000000000804e239        0x3 
 .rodata        0x000000000804e23c       0x5e /home/andreas/workspace/RIOT-2014.12/examples/hello-world/bin/native/hello-world.a(main.o)

.rodata1
 *(.rodata1)

.eh_frame_hdr   0x000000000804e29c      0x44c
 *(.eh_frame_hdr)
 .eh_frame_hdr  0x000000000804e29c      0x44c /home/andreas/workspace/RIOT-2014.12/examples/hello-world/bin/native/cpu/startup.o

.eh_frame       0x000000000804e6e8     0x1170
 *(.eh_frame)
 .eh_frame      0x000000000804e6e8       0x3c /usr/lib/gcc/x86_64-linux-gnu/4.8/../../../../lib32/crt1.o
                                         0x40 (size before relaxing)
 .eh_frame      0x000000000804e724       0xdc /home/andreas/workspace/RIOT-2014.12/examples/hello-world/bin/native/cpu/startup.o
                                         0xf4 (size before relaxing)
 .eh_frame      0x000000000804e800       0x58 /home/andreas/workspace/RIOT-2014.12/examples/hello-world/bin/native/core.a(kernel_init.o)
                                         0x70 (size before relaxing)
 .eh_frame      0x000000000804e858      0x160 /home/andreas/workspace/RIOT-2014.12/examples/hello-world/bin/native/core.a(thread.o)
                                        0x178 (size before relaxing)
 .eh_frame      0x000000000804e9b8      0x180 /home/andreas/workspace/RIOT-2014.12/examples/hello-world/bin/native/core.a(hwtimer.o)
                                        0x198 (size before relaxing)
 .eh_frame      0x000000000804eb38       0x80 /home/andreas/workspace/RIOT-2014.12/examples/hello-world/bin/native/core.a(lifo.o)
                                         0x98 (size before relaxing)
 .eh_frame      0x000000000804ebb8       0xa0 /home/andreas/workspace/RIOT-2014.12/examples/hello-world/bin/native/core.a(mutex.o)
                                         0xb8 (size before relaxing)
 .eh_frame      0x000000000804ec58       0x60 /home/andreas/workspace/RIOT-2014.12/examples/hello-world/bin/native/core.a(priority_queue.o)
                                         0x78 (size before relaxing)
 .eh_frame      0x000000000804ecb8       0x7c /home/andreas/workspace/RIOT-2014.12/examples/hello-world/bin/native/core.a(sched.o)
                                         0x94 (size before relaxing)
 .eh_frame      0x000000000804ed34       0x6c /home/andreas/workspace/RIOT-2014.12/examples/hello-world/bin/native/core.a(bitarithm.o)
                                         0x84 (size before relaxing)
 .eh_frame      0x000000000804eda0       0x40 /home/andreas/workspace/RIOT-2014.12/examples/hello-world/bin/native/core.a(clist.o)
                                         0x58 (size before relaxing)
 .eh_frame      0x000000000804ede0       0x20 /home/andreas/workspace/RIOT-2014.12/examples/hello-world/bin/native/cpu.a(atomic_cpu.o)
                                         0x38 (size before relaxing)
 .eh_frame      0x000000000804ee00      0x1d8 /home/andreas/workspace/RIOT-2014.12/examples/hello-world/bin/native/cpu.a(hwtimer_cpu.o)
                                        0x1f0 (size before relaxing)
 .eh_frame      0x000000000804efd8      0x25c /home/andreas/workspace/RIOT-2014.12/examples/hello-world/bin/native/cpu.a(irq_cpu.o)
                                        0x274 (size before relaxing)
 .eh_frame      0x000000000804f234       0xe0 /home/andreas/workspace/RIOT-2014.12/examples/hello-world/bin/native/cpu.a(lpm_cpu.o)
                                         0xf8 (size before relaxing)
 .eh_frame      0x000000000804f314       0xf4 /home/andreas/workspace/RIOT-2014.12/examples/hello-world/bin/native/cpu.a(native_cpu.o)
                                        0x10c (size before relaxing)
 .eh_frame      0x000000000804f408      0x2dc /home/andreas/workspace/RIOT-2014.12/examples/hello-world/bin/native/cpu.a(syscalls.o)
                                        0x2f4 (size before relaxing)
 .eh_frame      0x000000000804f6e4       0x20 /home/andreas/workspace/RIOT-2014.12/examples/hello-world/bin/native/native_base.a(board_init.o)
                                         0x38 (size before relaxing)
 .eh_frame      0x000000000804f704       0xc0 /home/andreas/workspace/RIOT-2014.12/examples/hello-world/bin/native/native_base.a(native-led.o)
                                         0xd8 (size before relaxing)
 .eh_frame      0x000000000804f7c4       0x20 /home/andreas/workspace/RIOT-2014.12/examples/hello-world/bin/native/hello-world.a(main.o)
                                         0x38 (size before relaxing)
 .eh_frame      0x000000000804f7e4       0x20 /home/andreas/workspace/RIOT-2014.12/examples/hello-world/bin/native/auto_init.a(auto_init.o)
                                         0x38 (size before relaxing)
 .eh_frame      0x000000000804f804       0x50 /usr/lib32/libc_nonshared.a(elf-init.oS)
                                         0x7c (size before relaxing)
 .eh_frame      0x000000000804f854        0x4 /usr/lib/gcc/x86_64-linux-gnu/4.8/32/crtend.o

.gcc_except_table
 *(.gcc_except_table .gcc_except_table.*)

.exception_ranges
 *(.exception_ranges .exception_ranges*)
                0x000000000804f858                . = (ALIGN (0x1000) - ((0x1000 - .) & 0xfff))
                0x0000000008050efc                . = DATA_SEGMENT_ALIGN (0x1000, 0x1000)

.eh_frame
 *(.eh_frame)

.gcc_except_table
 *(.gcc_except_table .gcc_except_table.*)

.exception_ranges
 *(.exception_ranges .exception_ranges*)

.tdata
 *(.tdata .tdata.* .gnu.linkonce.td.*)

.tbss
 *(.tbss .tbss.* .gnu.linkonce.tb.*)
 *(.tcommon)

.preinit_array  0x0000000008050efc        0x0
                0x0000000008050efc                PROVIDE (__preinit_array_start, .)
 *(.preinit_array)
                0x0000000008050efc                PROVIDE (__preinit_array_end, .)

.init_array     0x0000000008050efc        0x8
                0x0000000008050efc                PROVIDE (__init_array_start, .)
 *(SORT(.init_array.*) SORT(.ctors.*))
 *(.init_array EXCLUDE_FILE(*crtend?.o *crtend.o *crtbegin?.o *crtbegin.o) .ctors)
 .init_array    0x0000000008050efc        0x4 /usr/lib/gcc/x86_64-linux-gnu/4.8/32/crtbegin.o
 .init_array    0x0000000008050f00        0x4 /home/andreas/workspace/RIOT-2014.12/examples/hello-world/bin/native/cpu/startup.o
                0x0000000008050f04                PROVIDE (__init_array_end, .)

.fini_array     0x0000000008050f04        0x4
                0x0000000008050f04                PROVIDE (__fini_array_start, .)
 *(SORT(.fini_array.*) SORT(.dtors.*))
 *(.fini_array EXCLUDE_FILE(*crtend?.o *crtend.o *crtbegin?.o *crtbegin.o) .dtors)
 .fini_array    0x0000000008050f04        0x4 /usr/lib/gcc/x86_64-linux-gnu/4.8/32/crtbegin.o
                0x0000000008050f08                PROVIDE (__fini_array_end, .)

.ctors
 *crtbegin.o(.ctors)
 *crtbegin?.o(.ctors)
 *(EXCLUDE_FILE(*crtend?.o *crtend.o) .ctors)
 *(SORT(.ctors.*))
 *(.ctors)

.dtors
 *crtbegin.o(.dtors)
 *crtbegin?.o(.dtors)
 *(EXCLUDE_FILE(*crtend?.o *crtend.o) .dtors)
 *(SORT(.dtors.*))
 *(.dtors)

.jcr            0x0000000008050f08        0x4
 *(.jcr)
 .jcr           0x0000000008050f08        0x0 /usr/lib/gcc/x86_64-linux-gnu/4.8/32/crtbegin.o
 .jcr           0x0000000008050f08        0x4 /usr/lib/gcc/x86_64-linux-gnu/4.8/32/crtend.o

.data.rel.ro
 *(.data.rel.ro.local* .gnu.linkonce.d.rel.ro.local.*)
 *(.data.rel.ro .data.rel.ro.* .gnu.linkonce.d.rel.ro.*)

.dynamic        0x0000000008050f0c       0xf0
 *(.dynamic)
 .dynamic       0x0000000008050f0c       0xf0 /usr/lib/gcc/x86_64-linux-gnu/4.8/../../../../lib32/crt1.o
                0x0000000008050f0c                _DYNAMIC

.got            0x0000000008050ffc        0x4
 *(.got)
 .got           0x0000000008050ffc        0x4 /usr/lib/gcc/x86_64-linux-gnu/4.8/../../../../lib32/crt1.o
 *(.igot)
                0x0000000008051ff4                . = DATA_SEGMENT_RELRO_END (., (SIZEOF (.got.plt) >= 0xc)?0xc:0x0)

.got.plt        0x0000000008051000       0x74
 *(.got.plt)
 .got.plt       0x0000000008051000       0x74 /usr/lib/gcc/x86_64-linux-gnu/4.8/../../../../lib32/crt1.o
                0x0000000008051000                _GLOBAL_OFFSET_TABLE_
 *(.igot.plt)
 .igot.plt      0x0000000000000000        0x0 /usr/lib/gcc/x86_64-linux-gnu/4.8/../../../../lib32/crt1.o

.data           0x0000000008051074       0x14
 *(.data .data.* .gnu.linkonce.d.*)
 .data          0x0000000008051074        0x4 /usr/lib/gcc/x86_64-linux-gnu/4.8/../../../../lib32/crt1.o
                0x0000000008051074                data_start
                0x0000000008051074                __data_start
 .data          0x0000000008051078        0x0 /usr/lib/gcc/x86_64-linux-gnu/4.8/../../../../lib32/crti.o
 .data          0x0000000008051078        0x4 /usr/lib/gcc/x86_64-linux-gnu/4.8/32/crtbegin.o
                0x0000000008051078                __dso_handle
 .data          0x000000000805107c        0x0 /home/andreas/workspace/RIOT-2014.12/examples/hello-world/bin/native/cpu/startup.o
 .data          0x000000000805107c        0x8 /home/andreas/workspace/RIOT-2014.12/examples/hello-world/bin/native/core.a(kernel_init.o)
                0x000000000805107c                main_name
                0x0000000008051080                idle_name
 .data          0x0000000008051084        0x0 /home/andreas/workspace/RIOT-2014.12/examples/hello-world/bin/native/core.a(thread.o)
 .data          0x0000000008051084        0x0 /home/andreas/workspace/RIOT-2014.12/examples/hello-world/bin/native/core.a(hwtimer.o)
 .data          0x0000000008051084        0x0 /home/andreas/workspace/RIOT-2014.12/examples/hello-world/bin/native/core.a(lifo.o)
 .data          0x0000000008051084        0x0 /home/andreas/workspace/RIOT-2014.12/examples/hello-world/bin/native/core.a(mutex.o)
 .data          0x0000000008051084        0x0 /home/andreas/workspace/RIOT-2014.12/examples/hello-world/bin/native/core.a(priority_queue.o)
 .data          0x0000000008051084        0x0 /home/andreas/workspace/RIOT-2014.12/examples/hello-world/bin/native/core.a(sched.o)
 .data          0x0000000008051084        0x0 /home/andreas/workspace/RIOT-2014.12/examples/hello-world/bin/native/core.a(bitarithm.o)
 .data          0x0000000008051084        0x0 /home/andreas/workspace/RIOT-2014.12/examples/hello-world/bin/native/core.a(clist.o)
 .data          0x0000000008051084        0x0 /home/andreas/workspace/RIOT-2014.12/examples/hello-world/bin/native/cpu.a(atomic_cpu.o)
 .data          0x0000000008051084        0x4 /home/andreas/workspace/RIOT-2014.12/examples/hello-world/bin/native/cpu.a(hwtimer_cpu.o)
 .data          0x0000000008051088        0x0 /home/andreas/workspace/RIOT-2014.12/examples/hello-world/bin/native/cpu.a(irq_cpu.o)
 .data          0x0000000008051088        0x0 /home/andreas/workspace/RIOT-2014.12/examples/hello-world/bin/native/cpu.a(lpm_cpu.o)
 .data          0x0000000008051088        0x0 /home/andreas/workspace/RIOT-2014.12/examples/hello-world/bin/native/cpu.a(native_cpu.o)
 .data          0x0000000008051088        0x0 /home/andreas/workspace/RIOT-2014.12/examples/hello-world/bin/native/cpu.a(syscalls.o)
 .data          0x0000000008051088        0x0 /home/andreas/workspace/RIOT-2014.12/examples/hello-world/bin/native/cpu.a(tramp.o)
 .data          0x0000000008051088        0x0 /home/andreas/workspace/RIOT-2014.12/examples/hello-world/bin/native/native_base.a(board_init.o)
 .data          0x0000000008051088        0x0 /home/andreas/workspace/RIOT-2014.12/examples/hello-world/bin/native/native_base.a(native-led.o)
 .data          0x0000000008051088        0x0 /home/andreas/workspace/RIOT-2014.12/examples/hello-world/bin/native/hello-world.a(main.o)
 .data          0x0000000008051088        0x0 /home/andreas/workspace/RIOT-2014.12/examples/hello-world/bin/native/auto_init.a(auto_init.o)
 .data          0x0000000008051088        0x0 /usr/lib32/libc_nonshared.a(elf-init.oS)
 .data          0x0000000008051088        0x0 /usr/lib/gcc/x86_64-linux-gnu/4.8/32/crtend.o
 .data          0x0000000008051088        0x0 /usr/lib/gcc/x86_64-linux-gnu/4.8/../../../../lib32/crtn.o

.tm_clone_table
                0x0000000008051088        0x0
 .tm_clone_table
                0x0000000008051088        0x0 /usr/lib/gcc/x86_64-linux-gnu/4.8/32/crtbegin.o
 .tm_clone_table
                0x0000000008051088        0x0 /usr/lib/gcc/x86_64-linux-gnu/4.8/32/crtend.o

.data1
 *(.data1)
                0x0000000008051088                _edata = .
                0x0000000008051088                PROVIDE (edata, .)
                0x0000000008051088                . = .
                0x0000000008051088                __bss_start = .

.bss            0x00000000080510a0     0xcadc
 *(.dynbss)
 .dynbss        0x0000000000000000        0x0 /usr/lib/gcc/x86_64-linux-gnu/4.8/../../../../lib32/crt1.o
 *(.bss .bss.* .gnu.linkonce.b.*)
 .bss           0x00000000080510a0        0x0 /usr/lib/gcc/x86_64-linux-gnu/4.8/../../../../lib32/crt1.o
 .bss           0x00000000080510a0        0x0 /usr/lib/gcc/x86_64-linux-gnu/4.8/../../../../lib32/crti.o
 .bss           0x00000000080510a0        0x1 /usr/lib/gcc/x86_64-linux-gnu/4.8/32/crtbegin.o
 *fill*         0x00000000080510a1        0x3 
 .bss           0x00000000080510a4        0x4 /home/andreas/workspace/RIOT-2014.12/examples/hello-world/bin/native/cpu/startup.o
                0x00000000080510a4                _native_unix_socket_path
 *fill*         0x00000000080510a8       0x18 
 .bss           0x00000000080510c0     0x6020 /home/andreas/workspace/RIOT-2014.12/examples/hello-world/bin/native/core.a(kernel_init.o)
                0x00000000080510c0                lpm_prevent_sleep
 .bss           0x00000000080570e0        0x0 /home/andreas/workspace/RIOT-2014.12/examples/hello-world/bin/native/core.a(thread.o)
 .bss           0x00000000080570e0       0x34 /home/andreas/workspace/RIOT-2014.12/examples/hello-world/bin/native/core.a(hwtimer.o)
 .bss           0x0000000008057114        0x0 /home/andreas/workspace/RIOT-2014.12/examples/hello-world/bin/native/core.a(lifo.o)
 .bss           0x0000000008057114        0x0 /home/andreas/workspace/RIOT-2014.12/examples/hello-world/bin/native/core.a(mutex.o)
 .bss           0x0000000008057114        0x0 /home/andreas/workspace/RIOT-2014.12/examples/hello-world/bin/native/core.a(priority_queue.o)
 .bss           0x0000000008057114        0xc /home/andreas/workspace/RIOT-2014.12/examples/hello-world/bin/native/core.a(sched.o)
                0x0000000008057114                sched_num_threads
                0x0000000008057118                sched_active_pid
 .bss           0x0000000008057120        0x0 /home/andreas/workspace/RIOT-2014.12/examples/hello-world/bin/native/core.a(bitarithm.o)
 .bss           0x0000000008057120        0x0 /home/andreas/workspace/RIOT-2014.12/examples/hello-world/bin/native/core.a(clist.o)
 .bss           0x0000000008057120        0x0 /home/andreas/workspace/RIOT-2014.12/examples/hello-world/bin/native/cpu.a(atomic_cpu.o)
 .bss           0x0000000008057120       0x74 /home/andreas/workspace/RIOT-2014.12/examples/hello-world/bin/native/cpu.a(hwtimer_cpu.o)
 *fill*         0x0000000008057194        0xc 
 .bss           0x00000000080571a0      0x508 /home/andreas/workspace/RIOT-2014.12/examples/hello-world/bin/native/cpu.a(irq_cpu.o)
 .bss           0x00000000080576a8        0x4 /home/andreas/workspace/RIOT-2014.12/examples/hello-world/bin/native/cpu.a(lpm_cpu.o)
 .bss           0x00000000080576ac        0x0 /home/andreas/workspace/RIOT-2014.12/examples/hello-world/bin/native/cpu.a(native_cpu.o)
 .bss           0x00000000080576ac        0x0 /home/andreas/workspace/RIOT-2014.12/examples/hello-world/bin/native/cpu.a(syscalls.o)
 .bss           0x00000000080576ac        0x0 /home/andreas/workspace/RIOT-2014.12/examples/hello-world/bin/native/cpu.a(tramp.o)
 .bss           0x00000000080576ac        0x0 /home/andreas/workspace/RIOT-2014.12/examples/hello-world/bin/native/native_base.a(board_init.o)
 .bss           0x00000000080576ac        0x0 /home/andreas/workspace/RIOT-2014.12/examples/hello-world/bin/native/native_base.a(native-led.o)
 .bss           0x00000000080576ac        0x0 /home/andreas/workspace/RIOT-2014.12/examples/hello-world/bin/native/hello-world.a(main.o)
 .bss           0x00000000080576ac        0x0 /home/andreas/workspace/RIOT-2014.12/examples/hello-world/bin/native/auto_init.a(auto_init.o)
 .bss           0x00000000080576ac        0x0 /usr/lib32/libc_nonshared.a(elf-init.oS)
 .bss           0x00000000080576ac        0x0 /usr/lib/gcc/x86_64-linux-gnu/4.8/32/crtend.o
 .bss           0x00000000080576ac        0x0 /usr/lib/gcc/x86_64-linux-gnu/4.8/../../../../lib32/crtn.o
 *(COMMON)
 COMMON         0x00000000080576ac       0x1c /home/andreas/workspace/RIOT-2014.12/examples/hello-world/bin/native/cpu/startup.o
                0x00000000080576ac                _native_null_out_file
                0x00000000080576b0                _native_id
                0x00000000080576b4                _native_null_in_pipe
                0x00000000080576bc                _native_argv
                0x00000000080576c0                _progname
                0x00000000080576c4                _native_pid
 *fill*         0x00000000080576c8       0x18 
 COMMON         0x00000000080576e0       0xe4 /home/andreas/workspace/RIOT-2014.12/examples/hello-world/bin/native/core.a(sched.o)
                0x00000000080576e0                sched_runqueues
                0x0000000008057720                sched_active_thread
                0x0000000008057724                sched_context_switch_request
                0x0000000008057740                sched_threads
 *fill*         0x00000000080577c4       0x1c 
 COMMON         0x00000000080577e0     0x4184 /home/andreas/workspace/RIOT-2014.12/examples/hello-world/bin/native/cpu.a(irq_cpu.o)
                0x00000000080577e0                __isr_stack
                0x00000000080597e0                sigalt_stk
                0x000000000805b7e0                _sig_pipefd
                0x000000000805b7e8                native_interrupts_enabled
                0x000000000805b7ec                _native_saved_eip
                0x000000000805b7f0                _native_isr_ctx
                0x000000000805b7f4                _native_sigpend
                0x000000000805b7f8                _native_in_isr
                0x000000000805b800                native_isr_context
                0x000000000805b95c                _native_in_syscall
                0x000000000805b960                _native_cur_ctx
 *fill*         0x000000000805b964       0x1c 
 COMMON         0x000000000805b980     0x215c /home/andreas/workspace/RIOT-2014.12/examples/hello-world/bin/native/cpu.a(native_cpu.o)
                0x000000000805b980                __end_stack
                0x000000000805d980                end_context
 COMMON         0x000000000805dadc       0xa0 /home/andreas/workspace/RIOT-2014.12/examples/hello-world/bin/native/cpu.a(syscalls.o)
                0x000000000805dadc                real_execve
                0x000000000805dae0                real_setitimer
                0x000000000805dae4                real_open
                0x000000000805dae8                real_srandom
                0x000000000805daec                real_fread
                0x000000000805daf0                real_getifaddrs
                0x000000000805daf4                real_freeifaddrs
                0x000000000805daf8                real_getpid
                0x000000000805dafc                _native_in_calloc
                0x000000000805db00                real_fork
                0x000000000805db04                real_free
                0x000000000805db08                real_accept
                0x000000000805db0c                real_fopen
                0x000000000805db10                real_select
                0x000000000805db14                real_creat
                0x000000000805db18                real_getaddrinfo
                0x000000000805db1c                real_socket
                0x000000000805db20                real_ioctl
                0x000000000805db24                real_calloc
                0x000000000805db28                real_setsockopt
                0x000000000805db2c                real_unlink
                0x000000000805db30                real_realloc
                0x000000000805db34                real_listen
                0x000000000805db38                real_read
                0x000000000805db3c                real_pause
                0x000000000805db40                real_printf
                0x000000000805db44                real_ferror
                0x000000000805db48                real_clock_gettime
                0x000000000805db4c                real_bind
                0x000000000805db50                real_random
                0x000000000805db54                real_clearerr
                0x000000000805db58                real_pipe
                0x000000000805db5c                real_write
                0x000000000805db60                real_close
                0x000000000805db64                real_malloc
                0x000000000805db68                real_dup2
                0x000000000805db6c                real_feof
                0x000000000805db70                real_exit
                0x000000000805db74                real_freeaddrinfo
                0x000000000805db78                real_gai_strerror
                0x000000000805db7c                . = ALIGN ((. != 0x0)?0x4:0x1)
                0x000000000805db7c                . = ALIGN (0x4)
                0x000000000805db7c                . = SEGMENT_START ("ldata-segment", .)
                0x000000000805db7c                . = ALIGN (0x4)
                0x000000000805db7c                _end = .
                0x000000000805db7c                PROVIDE (end, .)
                0x000000000805db7c                . = DATA_SEGMENT_END (.)

.stab
 *(.stab)

.stabstr
 *(.stabstr)

.stab.excl
 *(.stab.excl)

.stab.exclstr
 *(.stab.exclstr)

.stab.index
 *(.stab.index)

.stab.indexstr
 *(.stab.indexstr)

.comment        0x0000000000000000       0x4d
 *(.comment)
 .comment       0x0000000000000000       0x29 /usr/lib/gcc/x86_64-linux-gnu/4.8/32/crtbegin.o
                                         0x2a (size before relaxing)
 .comment       0x0000000000000000       0x2a /home/andreas/workspace/RIOT-2014.12/examples/hello-world/bin/native/cpu/startup.o
 .comment       0x0000000000000000       0x2a /home/andreas/workspace/RIOT-2014.12/examples/hello-world/bin/native/core.a(kernel_init.o)
 .comment       0x0000000000000000       0x2a /home/andreas/workspace/RIOT-2014.12/examples/hello-world/bin/native/core.a(thread.o)
 .comment       0x0000000000000000       0x2a /home/andreas/workspace/RIOT-2014.12/examples/hello-world/bin/native/core.a(hwtimer.o)
 .comment       0x0000000000000000       0x2a /home/andreas/workspace/RIOT-2014.12/examples/hello-world/bin/native/core.a(lifo.o)
 .comment       0x0000000000000000       0x2a /home/andreas/workspace/RIOT-2014.12/examples/hello-world/bin/native/core.a(mutex.o)
 .comment       0x0000000000000000       0x2a /home/andreas/workspace/RIOT-2014.12/examples/hello-world/bin/native/core.a(priority_queue.o)
 .comment       0x0000000000000000       0x2a /home/andreas/workspace/RIOT-2014.12/examples/hello-world/bin/native/core.a(sched.o)
 .comment       0x0000000000000000       0x2a /home/andreas/workspace/RIOT-2014.12/examples/hello-world/bin/native/core.a(bitarithm.o)
 .comment       0x0000000000000000       0x2a /home/andreas/workspace/RIOT-2014.12/examples/hello-world/bin/native/core.a(clist.o)
 .comment       0x0000000000000000       0x2a /home/andreas/workspace/RIOT-2014.12/examples/hello-world/bin/native/cpu.a(atomic_cpu.o)
 .comment       0x0000000000000000       0x2a /home/andreas/workspace/RIOT-2014.12/examples/hello-world/bin/native/cpu.a(hwtimer_cpu.o)
 .comment       0x0000000000000000       0x2a /home/andreas/workspace/RIOT-2014.12/examples/hello-world/bin/native/cpu.a(irq_cpu.o)
 .comment       0x0000000000000000       0x2a /home/andreas/workspace/RIOT-2014.12/examples/hello-world/bin/native/cpu.a(lpm_cpu.o)
 .comment       0x0000000000000000       0x2a /home/andreas/workspace/RIOT-2014.12/examples/hello-world/bin/native/cpu.a(native_cpu.o)
 .comment       0x0000000000000000       0x2a /home/andreas/workspace/RIOT-2014.12/examples/hello-world/bin/native/cpu.a(syscalls.o)
 .comment       0x0000000000000000       0x2a /home/andreas/workspace/RIOT-2014.12/examples/hello-world/bin/native/native_base.a(board_init.o)
 .comment       0x0000000000000000       0x2a /home/andreas/workspace/RIOT-2014.12/examples/hello-world/bin/native/native_base.a(native-led.o)
 .comment       0x0000000000000000       0x2a /home/andreas/workspace/RIOT-2014.12/examples/hello-world/bin/native/hello-world.a(main.o)
 .comment       0x0000000000000000       0x2a /home/andreas/workspace/RIOT-2014.12/examples/hello-world/bin/native/auto_init.a(auto_init.o)
 .comment       0x0000000000000029       0x24 /usr/lib32/libc_nonshared.a(elf-init.oS)
                                         0x25 (size before relaxing)
 .comment       0x0000000000000000       0x2a /usr/lib/gcc/x86_64-linux-gnu/4.8/32/crtend.o

.debug
 *(.debug)

.line
 *(.line)

.debug_srcinfo
 *(.debug_srcinfo)

.debug_sfnames
 *(.debug_sfnames)

.debug_aranges
 *(.debug_aranges)

.debug_pubnames
 *(.debug_pubnames)

.debug_info
 *(.debug_info .gnu.linkonce.wi.*)

.debug_abbrev
 *(.debug_abbrev)

.debug_line
 *(.debug_line .debug_line.* .debug_line_end)

.debug_frame
 *(.debug_frame)

.debug_str
 *(.debug_str)

.debug_loc
 *(.debug_loc)

.debug_macinfo
 *(.debug_macinfo)

.debug_weaknames
 *(.debug_weaknames)

.debug_funcnames
 *(.debug_funcnames)

.debug_typenames
 *(.debug_typenames)

.debug_varnames
 *(.debug_varnames)

.debug_pubtypes
 *(.debug_pubtypes)

.debug_ranges
 *(.debug_ranges)

.debug_macro
 *(.debug_macro)

.gnu.attributes
 *(.gnu.attributes)

/DISCARD/
 *(.note.GNU-stack)
 *(.gnu_debuglink)
 *(.gnu.lto_*)
OUTPUT(/home/andreas/workspace/RIOT-2014.12/examples/hello-world/bin/native/hello-world.elf elf32-i386)
